

Microchip MPLAB XC8 Assembler V2.36 build 20220127204148 
                                                                                               Tue Aug 23 23:13:41 2022

Microchip MPLAB XC8 C Compiler v2.36 (Free license) build 20220127204148 Og1 
     1                           	processor	18F47Q43
     2                           	fnconf	rparam,??,?,0
     3                           	pagewidth 120
     4                           	opt	flic
     5                           	psect	smallconst,global,reloc=2,class=SMALLCONST,delta=1,noexec
     6                           	psect	cinit,global,reloc=2,class=CODE,delta=1
     7                           	psect	bssCOMRAM,global,class=COMRAM,space=1,delta=1,lowdata,noexec
     8                           	psect	cstackCOMRAM,global,class=COMRAM,space=1,delta=1,lowdata,noexec
     9                           	psect	text0,global,reloc=2,class=CODE,delta=1
    10                           	psect	text1,global,reloc=2,class=CODE,delta=1
    11                           	psect	text2,global,reloc=2,class=CODE,delta=1
    12                           	psect	text3,global,reloc=2,class=CODE,delta=1
    13                           	psect	text4,global,reloc=2,class=CODE,delta=1
    14                           	psect	text5,global,reloc=2,class=CODE,delta=1
    15                           	psect	text6,global,reloc=2,class=CODE,delta=1
    16                           	psect	text7,global,reloc=2,class=CODE,delta=1
    17                           	psect	text8,global,reloc=2,class=CODE,delta=1,inline
    18                           	psect	text9,global,reloc=2,class=CODE,delta=1
    19                           	psect	text10,global,reloc=2,class=CODE,delta=1
    20                           	psect	text11,global,reloc=2,class=CODE,delta=1
    21                           	psect	text12,global,reloc=2,class=CODE,delta=1
    22                           	psect	text13,global,reloc=2,class=CODE,delta=1
    23                           	psect	text14,global,reloc=2,class=CODE,delta=1
    24                           	psect	text15,global,reloc=2,class=CODE,delta=1
    25                           	psect	text16,global,reloc=2,class=CODE,delta=1
    26                           	psect	text17,global,reloc=2,class=CODE,delta=1
    27                           	psect	text18,global,reloc=2,class=CODE,delta=1
    28                           	psect	text19,global,reloc=2,class=CODE,delta=1
    29                           	psect	text20,global,reloc=2,class=CODE,delta=1
    30                           	psect	text21,global,reloc=2,class=CODE,delta=1
    31                           	psect	text22,global,reloc=2,class=CODE,delta=1
    32                           	psect	text23,global,reloc=2,class=CODE,delta=1,inline
    33                           	psect	text24,global,reloc=2,class=CODE,delta=1
    34                           	psect	text25,global,reloc=2,class=CODE,delta=1
    35                           	psect	text26,global,reloc=2,class=CODE,delta=1
    36                           	psect	text27,global,reloc=2,class=CODE,delta=1
    37                           	psect	text28,global,reloc=2,class=CODE,delta=1
    38                           	psect	text29,global,reloc=2,class=CODE,delta=1
    39                           	psect	text30,global,reloc=2,class=CODE,delta=1
    40                           	psect	text31,global,reloc=2,class=CODE,delta=1
    41                           	psect	text32,global,reloc=2,class=CODE,delta=1
    42                           	psect	text33,global,reloc=2,class=CODE,delta=1,inline
    43                           	psect	text34,global,reloc=2,class=CODE,delta=1,inline
    44                           	psect	text35,global,reloc=2,class=CODE,delta=1,inline
    45                           	psect	text36,global,reloc=2,class=CODE,delta=1,inline
    46                           	psect	text37,global,reloc=2,class=CODE,delta=1,inline
    47                           	psect	text38,global,reloc=2,class=CODE,delta=1,inline
    48                           	psect	ivt0x8,global,reloc=2,class=CODE,delta=1,noexec,keep,optim=
    49                           	psect	intsave_regs,global,class=BIGRAM,space=1,delta=1,noexec
    50                           	psect	text39,global,reloc=2,class=CODE,delta=1,inline
    51                           	psect	rparam,global,class=COMRAM,space=1,delta=1,noexec
    52                           	psect	idloc,global,abs,ovrld,class=IDLOC,space=5,delta=1,noexec
    53                           	psect	config,global,abs,ovrld,class=CONFIG,space=4,delta=1,noexec
    54  0000                     
    55                           ; Generated 17/06/2022 GMT
    56                           ; 
    57                           ; Copyright © 2022, Microchip Technology Inc. and its subsidiaries ("Microchip")
    58                           ; All rights reserved.
    59                           ; 
    60                           ; This software is developed by Microchip Technology Inc. and its subsidiaries ("Microch
      +                          ip").
    61                           ; 
    62                           ; Redistribution and use in source and binary forms, with or without modification, are
    63                           ; permitted provided that the following conditions are met:
    64                           ; 
    65                           ;     1. Redistributions of source code must retain the above copyright notice, this lis
      +                          t of
    66                           ;        conditions and the following disclaimer.
    67                           ; 
    68                           ;     2. Redistributions in binary form must reproduce the above copyright notice, this 
      +                          list
    69                           ;        of conditions and the following disclaimer in the documentation and/or other
    70                           ;        materials provided with the distribution. Publication is not required when
    71                           ;        this file is used in an embedded application.
    72                           ; 
    73                           ;     3. Microchip's name may not be used to endorse or promote products derived from th
      +                          is
    74                           ;        software without specific prior written permission.
    75                           ; 
    76                           ; THIS SOFTWARE IS PROVIDED BY MICROCHIP "AS IS" AND ANY EXPRESS OR IMPLIED WARRANTIES,
    77                           ; INCLUDING, BUT NOT LIMITED TO, THE IMPLIED WARRANTIES OF MERCHANTABILITY AND FITNESS F
      +                          OR
    78                           ; PURPOSE ARE DISCLAIMED.  IN NO EVENT SHALL MICROCHIP BE LIABLE FOR ANY DIRECT, INDIREC
      +                          T,
    79                           ; INCIDENTAL, SPECIAL, EXEMPLARY, OR CONSEQUENTIAL DAMAGES (INCLUDING BUT NOT LIMITED TO
    80                           ; PROCUREMENT OF SUBSTITUTE GOODS OR SERVICES; LOSS OF USE, DATA OR PROFITS; OR BUSINESS
    81                           ; INTERRUPTION) HOWSOEVER CAUSED AND ON ANY THEORY OF LIABILITY, WHETHER IN CONTRACT, ST
      +                          RICT
    82                           ; LIABILITY, OR TORT (INCLUDING NEGLIGENCE OR OTHERWISE) ARISING IN ANY WAY OUT OF THE U
      +                          SE OF
    83                           ; THIS SOFTWARE, EVEN IF ADVISED OF THE POSSIBILITY OF SUCH DAMAGE.
    84                           ; 
    85                           ; 
    86                           ; Code-generator required, PIC18F47Q43 Definitions
    87                           ; 
    88                           ; SFR Addresses
    89  0000                     
    90 ;; Function _I2C1_Deinitialize is unused but had its address taken
    91  0000                     
    92 ;; Function _I2C1_Write is unused but had its address taken
    93  0000                     
    94 ;; Function _I2C1_Read is unused but had its address taken
    95  0000                     
    96 ;; Function _I2C1_WriteRead is unused but had its address taken
    97  0000                     
    98 ;; Function _I2C1_ErrorGet is unused but had its address taken
    99  0000                     
   100 ;; Function _I2C1_IsBusy is unused but had its address taken
   101  0000                     
   102 ;; Function _INT0_DefaultInterruptHandler is unused but had its address taken
   103  0000                     
   104 ;; Function _INT1_DefaultInterruptHandler is unused but had its address taken
   105  0000                     
   106 ;; Function _INT2_DefaultInterruptHandler is unused but had its address taken
   107  0000                     
   108                           	psect	smallconst
   109  002500                     __psmallconst:
   110                           	callstack 0
   111  002500  00                 	db	0
   112  002501                     _I2C1_Host:
   113                           	callstack 0
   114  002501  26                 	db	low _I2C1_Initialize
   115  002502  28                 	db	high _I2C1_Initialize
   116  002503  00                 	db	low (_I2C1_Initialize shr (0+16))
   117  002504  00                 	db	0
   118  002505  00                 	db	0
   119  002506  00                 	db	0
   120  002507  00                 	db	0
   121  002508  00                 	db	0
   122  002509  00                 	db	0
   123  00250A  00                 	db	0
   124  00250B  00                 	db	0
   125  00250C  00                 	db	0
   126  00250D  00                 	db	0
   127  00250E  00                 	db	0
   128  00250F  00                 	db	0
   129  002510  00                 	db	0
   130  002511  00                 	db	0
   131  002512  00                 	db	0
   132  002513  00                 	db	0
   133  002514  00                 	db	0
   134  002515  00                 	db	0
   135  002516  00                 	db	0
   136  002517  00                 	db	0
   137  002518  00                 	db	0
   138  002519  68                 	db	low _I2C1_CallbackRegister
   139  00251A  29                 	db	high _I2C1_CallbackRegister
   140  00251B  00                 	db	low (_I2C1_CallbackRegister shr (0+16))
   141  00251C  00                 	db	0
   142  00251D  00                 	db	0
   143  00251E  00                 	db	0
   144  00251F                     __end_of_I2C1_Host:
   145                           	callstack 0
   146  0000                     _IOCCF	set	1047
   147  0000                     _IOCCN	set	1046
   148  0000                     _IOCCP	set	1045
   149  0000                     _IOCBF	set	1039
   150  0000                     _IOCBN	set	1038
   151  0000                     _IOCBP	set	1037
   152  0000                     _IOCAF	set	1031
   153  0000                     _IOCAN	set	1030
   154  0000                     _IOCAP	set	1029
   155  0000                     _INLVLC	set	1044
   156  0000                     _INLVLB	set	1036
   157  0000                     _INLVLA	set	1028
   158  0000                     _SLRCONC	set	1043
   159  0000                     _SLRCONB	set	1035
   160  0000                     _SLRCONA	set	1027
   161  0000                     _ODCONC	set	1042
   162  0000                     _ODCONB	set	1034
   163  0000                     _ODCONA	set	1026
   164  0000                     _RC3I2C	set	647
   165  0000                     _RB2I2C	set	648
   166  0000                     _RB1I2C	set	649
   167  0000                     _WPUC	set	1041
   168  0000                     _WPUB	set	1033
   169  0000                     _WPUA	set	1025
   170  0000                     _ANSELD	set	1048
   171  0000                     _ANSELC	set	1040
   172  0000                     _ANSELB	set	1032
   173  0000                     _OSCTUNE	set	176
   174  0000                     _OSCFRQ	set	177
   175  0000                     _OSCEN	set	179
   176  0000                     _I2C1STAT1	set	665
   177  0000                     _I2C1RXB	set	651
   178  0000                     _I2C1TXB	set	652
   179  0000                     _I2C1STAT0bits	set	664
   180  0000                     _I2C1ERR	set	663
   181  0000                     _I2C1PIE	set	667
   182  0000                     _I2C1PIR	set	666
   183  0000                     _I2C1CLK	set	668
   184  0000                     _I2C1CON2	set	662
   185  0000                     _I2C1CON1	set	661
   186  0000                     _I2C1STAT1bits	set	665
   187  0000                     _I2C1CON1bits	set	661
   188  0000                     _I2C1ERRbits	set	663
   189  0000                     _I2C1PIRbits	set	666
   190  0000                     _I2C1CON0bits	set	660
   191  0000                     _I2C1PIEbits	set	667
   192  0000                     _ACTCON	set	172
   193  0000                     _OSCCON1	set	173
   194  0000                     _RC4I2C	set	646
   195  0000                     _I2C1CNT	set	653
   196  0000                     _I2C1CON0	set	660
   197  0000                     _ANSELA	set	1024
   198  0000                     _PIE0bits	set	1182
   199  0000                     _PIE7bits	set	1189
   200  0000                     _I2C1ADB1	set	655
   201  0000                     _PIR0bits	set	1198
   202  0000                     _PIR1bits	set	1199
   203  0000                     _INTCON0bits	set	1238
   204  0000                     _PIR6bits	set	1204
   205  0000                     _PIR7bits	set	1205
   206  0000                     _PIR10bits	set	1208
   207  0000                     _LATA	set	1214
   208  0000                     _OSCCON3	set	175
   209  0000                     _RC4PPS	set	533
   210  0000                     _RC5PPS	set	534
   211  0000                     _I2C1SCLPPS	set	625
   212  0000                     _TRISA	set	1222
   213  0000                     _LATE	set	1218
   214  0000                     _LATD	set	1217
   215  0000                     _LATC	set	1216
   216  0000                     _LATB	set	1215
   217  0000                     _TRISE	set	1226
   218  0000                     _TRISD	set	1225
   219  0000                     _TRISC	set	1224
   220  0000                     _TRISB	set	1223
   221  0000                     _INLVLD	set	1052
   222  0000                     _SLRCOND	set	1051
   223  0000                     _ODCOND	set	1050
   224  0000                     _WPUD	set	1049
   225  0000                     _ANSELE	set	1056
   226  0000                     _IOCEF	set	1063
   227  0000                     _IOCEN	set	1062
   228  0000                     _IOCEP	set	1061
   229  0000                     _INLVLE	set	1060
   230  0000                     _SLRCONE	set	1059
   231  0000                     _ODCONE	set	1058
   232  0000                     _WPUE	set	1057
   233  0000                     _I2C1SDAPPS	set	624
   234  00251F  00                 	db	0	; dummy byte at the end
   235  0000                     
   236                           ; #config settings
   237                           
   238                           	psect	cinit
   239  00298A                     __pcinit:
   240                           	callstack 0
   241  00298A                     start_initialization:
   242                           	callstack 0
   243  00298A                     __initialization:
   244                           	callstack 0
   245                           
   246                           ; Clear objects allocated to COMRAM (25 bytes)
   247  00298A  EE01  F101         	lfsr	0,__pbssCOMRAM
   248  00298E  0E19               	movlw	25
   249  002990                     clear_0:
   250  002990  6AEE               	clrf	postinc0,c
   251  002992  06E8               	decf	wreg,f,c
   252  002994  E1FD               	bnz	clear_0
   253                           
   254                           ;
   255                           ; Setup IVTBASE
   256                           ;
   257  002996  0104               	movlb	4
   258  002998  0E08               	movlw	(ivt0x8_base shr 0)& (0+255)
   259  00299A  6F5D               	movwf	93,b
   260  00299C  0E00               	movlw	(ivt0x8_base shr (0+8))& (0+255)
   261  00299E  6F5E               	movwf	94,b
   262  0029A0  0E00               	movlw	(ivt0x8_base shr (0+16))& (0+255)
   263  0029A2  6F5F               	movwf	95,b
   264  0029A4                     end_of_initialization:
   265                           	callstack 0
   266  0029A4                     __end_of__initialization:
   267                           	callstack 0
   268  0029A4  0100               	movlb	0
   269  0029A6  EF6E  F015         	goto	_main	;jump to C main() function
   270                           
   271                           	psect	bssCOMRAM
   272  000501                     __pbssCOMRAM:
   273                           	callstack 0
   274  000501                     _i2c1Status:
   275                           	callstack 0
   276  000501                     	ds	13
   277  00050E                     _INT2_InterruptHandler:
   278                           	callstack 0
   279  00050E                     	ds	3
   280  000511                     _INT1_InterruptHandler:
   281                           	callstack 0
   282  000511                     	ds	3
   283  000514                     _INT0_InterruptHandler:
   284                           	callstack 0
   285  000514                     	ds	3
   286  000517                     _I2C1_Callback:
   287                           	callstack 0
   288  000517                     	ds	3
   289                           
   290                           	psect	cstackCOMRAM
   291  00051A                     __pcstackCOMRAM:
   292                           	callstack 0
   293  00051A                     I2C1_AddrTransmit@addr:
   294                           	callstack 0
   295  00051A                     I2C1_DataTransmit@data:
   296                           	callstack 0
   297  00051A                     I2C1_CounterSet@counter:
   298                           	callstack 0
   299                           
   300                           ; 1 bytes @ 0x0
   301  00051A                     	ds	1
   302  00051B                     ??_INTERRUPT_InterruptManager:
   303                           
   304                           ; 1 bytes @ 0x1
   305  00051B                     	ds	2
   306  00051D                     I2C1_CallbackRegister@callbackHandler:
   307                           	callstack 0
   308  00051D                     INT0_SetInterruptHandler@InterruptHandler:
   309                           	callstack 0
   310  00051D                     INT1_SetInterruptHandler@InterruptHandler:
   311                           	callstack 0
   312  00051D                     INT2_SetInterruptHandler@InterruptHandler:
   313                           	callstack 0
   314                           
   315                           ; 3 bytes @ 0x3
   316  00051D                     	ds	3
   317  000520                     
   318                           ; 1 bytes @ 0x6
   319 ;;
   320 ;;Main: autosize = 0, tempsize = 0, incstack = 0, save=0
   321 ;;
   322 ;; *************** function _main *****************
   323 ;; Defined at:
   324 ;;		line 39 in file "main.c"
   325 ;; Parameters:    Size  Location     Type
   326 ;;		None
   327 ;; Auto vars:     Size  Location     Type
   328 ;;		None
   329 ;; Return value:  Size  Location     Type
   330 ;;                  2    6[None  ] int 
   331 ;; Registers used:
   332 ;;		wreg, status,2, status,0, cstack
   333 ;; Tracked objects:
   334 ;;		On entry : 0/0
   335 ;;		On exit  : 0/0
   336 ;;		Unchanged: 0/0
   337 ;; Data sizes:     COMRAM   BANK5   BANK6   BANK7   BANK8   BANK9  BANK10  BANK11  BANK12  BANK13  BANK14  BANK15  BANK1
      +6  BANK17  BANK18  BANK19  BANK20  BANK21  BANK22  BANK23  BANK24  BANK25  BANK26  BANK27  BANK28  BANK29  BANK30  BANK3
      +1  BANK32  BANK33  BANK34  BANK35  BANK36
   338 ;;      Params:         0       0       0       0       0       0       0       0       0       0       0       0       
      +0       0       0       0       0       0       0       0       0       0       0       0       0       0       0       
      +0       0       0       0       0       0
   339 ;;      Locals:         0       0       0       0       0       0       0       0       0       0       0       0       
      +0       0       0       0       0       0       0       0       0       0       0       0       0       0       0       
      +0       0       0       0       0       0
   340 ;;      Temps:          0       0       0       0       0       0       0       0       0       0       0       0       
      +0       0       0       0       0       0       0       0       0       0       0       0       0       0       0       
      +0       0       0       0       0       0
   341 ;;      Totals:         0       0       0       0       0       0       0       0       0       0       0       0       
      +0       0       0       0       0       0       0       0       0       0       0       0       0       0       0       
      +0       0       0       0       0       0
   342 ;;Total ram usage:        0 bytes
   343 ;; Hardware stack levels required when called: 7
   344 ;; This function calls:
   345 ;;		_SYSTEM_Initialize
   346 ;; This function is called by:
   347 ;;		Startup code after reset
   348 ;; This function uses a non-reentrant model
   349 ;;
   350                           
   351                           	psect	text0
   352  002ADC                     __ptext0:
   353                           	callstack 0
   354  002ADC                     _main:
   355                           	callstack 120
   356  002ADC                     
   357                           ;main.c: 41:     SYSTEM_Initialize();
   358  002ADC  EC50  F015         	call	_SYSTEM_Initialize	;wreg free
   359  002AE0                     l7:
   360  002AE0  EF70  F015         	goto	l7
   361  002AE4  EF0D  F000         	goto	start
   362  002AE8                     __end_of_main:
   363                           	callstack 0
   364                           
   365 ;; *************** function _SYSTEM_Initialize *****************
   366 ;; Defined at:
   367 ;;		line 43 in file "mcc_generated_files/system/src/system.c"
   368 ;; Parameters:    Size  Location     Type
   369 ;;		None
   370 ;; Auto vars:     Size  Location     Type
   371 ;;		None
   372 ;; Return value:  Size  Location     Type
   373 ;;                  1    wreg      void 
   374 ;; Registers used:
   375 ;;		wreg, status,2, status,0, cstack
   376 ;; Tracked objects:
   377 ;;		On entry : 0/0
   378 ;;		On exit  : 0/0
   379 ;;		Unchanged: 0/0
   380 ;; Data sizes:     COMRAM   BANK5   BANK6   BANK7   BANK8   BANK9  BANK10  BANK11  BANK12  BANK13  BANK14  BANK15  BANK1
      +6  BANK17  BANK18  BANK19  BANK20  BANK21  BANK22  BANK23  BANK24  BANK25  BANK26  BANK27  BANK28  BANK29  BANK30  BANK3
      +1  BANK32  BANK33  BANK34  BANK35  BANK36
   381 ;;      Params:         0       0       0       0       0       0       0       0       0       0       0       0       
      +0       0       0       0       0       0       0       0       0       0       0       0       0       0       0       
      +0       0       0       0       0       0
   382 ;;      Locals:         0       0       0       0       0       0       0       0       0       0       0       0       
      +0       0       0       0       0       0       0       0       0       0       0       0       0       0       0       
      +0       0       0       0       0       0
   383 ;;      Temps:          0       0       0       0       0       0       0       0       0       0       0       0       
      +0       0       0       0       0       0       0       0       0       0       0       0       0       0       0       
      +0       0       0       0       0       0
   384 ;;      Totals:         0       0       0       0       0       0       0       0       0       0       0       0       
      +0       0       0       0       0       0       0       0       0       0       0       0       0       0       0       
      +0       0       0       0       0       0
   385 ;;Total ram usage:        0 bytes
   386 ;; Hardware stack levels used: 1
   387 ;; Hardware stack levels required when called: 6
   388 ;; This function calls:
   389 ;;		_CLOCK_Initialize
   390 ;;		_I2C1_Initialize
   391 ;;		_INTERRUPT_Initialize
   392 ;;		_PIN_MANAGER_Initialize
   393 ;; This function is called by:
   394 ;;		_main
   395 ;; This function uses a non-reentrant model
   396 ;;
   397                           
   398                           	psect	text1
   399  002AA0                     __ptext1:
   400                           	callstack 0
   401  002AA0                     _SYSTEM_Initialize:
   402                           	callstack 120
   403  002AA0                     
   404                           ;mcc_generated_files/system/src/system.c: 45:     CLOCK_Initialize();
   405  002AA0  ECD5  F014         	call	_CLOCK_Initialize	;wreg free
   406                           
   407                           ;mcc_generated_files/system/src/system.c: 46:     PIN_MANAGER_Initialize();
   408  002AA4  EC00  F013         	call	_PIN_MANAGER_Initialize	;wreg free
   409  002AA8                     
   410                           ;mcc_generated_files/system/src/system.c: 47:     I2C1_Initialize();
   411  002AA8  EC13  F014         	call	_I2C1_Initialize	;wreg free
   412  002AAC                     
   413                           ;mcc_generated_files/system/src/system.c: 48:     INTERRUPT_Initialize();
   414  002AAC  EC3F  F014         	call	_INTERRUPT_Initialize	;wreg free
   415  002AB0  0012               	return		;funcret
   416  002AB2                     __end_of_SYSTEM_Initialize:
   417                           	callstack 0
   418                           
   419 ;; *************** function _PIN_MANAGER_Initialize *****************
   420 ;; Defined at:
   421 ;;		line 38 in file "mcc_generated_files/system/src/pins.c"
   422 ;; Parameters:    Size  Location     Type
   423 ;;		None
   424 ;; Auto vars:     Size  Location     Type
   425 ;;		None
   426 ;; Return value:  Size  Location     Type
   427 ;;                  1    wreg      void 
   428 ;; Registers used:
   429 ;;		wreg, status,2
   430 ;; Tracked objects:
   431 ;;		On entry : 0/0
   432 ;;		On exit  : 0/0
   433 ;;		Unchanged: 0/0
   434 ;; Data sizes:     COMRAM   BANK5   BANK6   BANK7   BANK8   BANK9  BANK10  BANK11  BANK12  BANK13  BANK14  BANK15  BANK1
      +6  BANK17  BANK18  BANK19  BANK20  BANK21  BANK22  BANK23  BANK24  BANK25  BANK26  BANK27  BANK28  BANK29  BANK30  BANK3
      +1  BANK32  BANK33  BANK34  BANK35  BANK36
   435 ;;      Params:         0       0       0       0       0       0       0       0       0       0       0       0       
      +0       0       0       0       0       0       0       0       0       0       0       0       0       0       0       
      +0       0       0       0       0       0
   436 ;;      Locals:         0       0       0       0       0       0       0       0       0       0       0       0       
      +0       0       0       0       0       0       0       0       0       0       0       0       0       0       0       
      +0       0       0       0       0       0
   437 ;;      Temps:          0       0       0       0       0       0       0       0       0       0       0       0       
      +0       0       0       0       0       0       0       0       0       0       0       0       0       0       0       
      +0       0       0       0       0       0
   438 ;;      Totals:         0       0       0       0       0       0       0       0       0       0       0       0       
      +0       0       0       0       0       0       0       0       0       0       0       0       0       0       0       
      +0       0       0       0       0       0
   439 ;;Total ram usage:        0 bytes
   440 ;; Hardware stack levels used: 1
   441 ;; Hardware stack levels required when called: 4
   442 ;; This function calls:
   443 ;;		Nothing
   444 ;; This function is called by:
   445 ;;		_SYSTEM_Initialize
   446 ;; This function uses a non-reentrant model
   447 ;;
   448                           
   449                           	psect	text2
   450  002600                     __ptext2:
   451                           	callstack 0
   452  002600                     _PIN_MANAGER_Initialize:
   453                           	callstack 121
   454  002600                     
   455                           ;mcc_generated_files/system/src/pins.c: 43:     LATA = 0x0;
   456  002600  0E00               	movlw	0
   457  002602  6EBE               	movwf	190,c	;volatile
   458                           
   459                           ;mcc_generated_files/system/src/pins.c: 44:     LATB = 0x0;
   460  002604  0E00               	movlw	0
   461  002606  6EBF               	movwf	191,c	;volatile
   462                           
   463                           ;mcc_generated_files/system/src/pins.c: 45:     LATC = 0x30;
   464  002608  0E30               	movlw	48
   465  00260A  6EC0               	movwf	192,c	;volatile
   466                           
   467                           ;mcc_generated_files/system/src/pins.c: 46:     LATD = 0x0;
   468  00260C  0E00               	movlw	0
   469  00260E  6EC1               	movwf	193,c	;volatile
   470                           
   471                           ;mcc_generated_files/system/src/pins.c: 47:     LATE = 0x0;
   472  002610  0E00               	movlw	0
   473  002612  6EC2               	movwf	194,c	;volatile
   474  002614                     
   475                           ;mcc_generated_files/system/src/pins.c: 52:     TRISA = 0xFF;
   476  002614  68C6               	setf	198,c	;volatile
   477  002616                     
   478                           ;mcc_generated_files/system/src/pins.c: 53:     TRISB = 0xFF;
   479  002616  68C7               	setf	199,c	;volatile
   480                           
   481                           ;mcc_generated_files/system/src/pins.c: 54:     TRISC = 0xCF;
   482  002618  0ECF               	movlw	207
   483  00261A  6EC8               	movwf	200,c	;volatile
   484  00261C                     
   485                           ;mcc_generated_files/system/src/pins.c: 55:     TRISD = 0xFF;
   486  00261C  68C9               	setf	201,c	;volatile
   487                           
   488                           ;mcc_generated_files/system/src/pins.c: 56:     TRISE = 0xF;
   489  00261E  0E0F               	movlw	15
   490  002620  6ECA               	movwf	202,c	;volatile
   491  002622                     
   492                           ;mcc_generated_files/system/src/pins.c: 61:     ANSELA = 0xFF;
   493  002622  0104               	movlb	4	; () banked
   494  002624  6900               	setf	0,b	;volatile
   495  002626                     
   496                           ; BSR set to: 4
   497                           ;mcc_generated_files/system/src/pins.c: 62:     ANSELB = 0xFF;
   498  002626  6908               	setf	8,b	;volatile
   499                           
   500                           ;mcc_generated_files/system/src/pins.c: 63:     ANSELC = 0xCF;
   501  002628  0ECF               	movlw	207
   502  00262A  6F10               	movwf	16,b	;volatile
   503  00262C                     
   504                           ; BSR set to: 4
   505                           ;mcc_generated_files/system/src/pins.c: 64:     ANSELD = 0xFF;
   506  00262C  6918               	setf	24,b	;volatile
   507                           
   508                           ;mcc_generated_files/system/src/pins.c: 65:     ANSELE = 0x7;
   509  00262E  0E07               	movlw	7
   510  002630  6F20               	movwf	32,b	;volatile
   511                           
   512                           ;mcc_generated_files/system/src/pins.c: 70:     WPUA = 0x0;
   513  002632  0E00               	movlw	0
   514  002634  6F01               	movwf	1,b	;volatile
   515                           
   516                           ;mcc_generated_files/system/src/pins.c: 71:     WPUB = 0x0;
   517  002636  0E00               	movlw	0
   518  002638  6F09               	movwf	9,b	;volatile
   519                           
   520                           ;mcc_generated_files/system/src/pins.c: 72:     WPUC = 0x0;
   521  00263A  0E00               	movlw	0
   522  00263C  6F11               	movwf	17,b	;volatile
   523                           
   524                           ;mcc_generated_files/system/src/pins.c: 73:     WPUD = 0x0;
   525  00263E  0E00               	movlw	0
   526  002640  6F19               	movwf	25,b	;volatile
   527                           
   528                           ;mcc_generated_files/system/src/pins.c: 74:     WPUE = 0x0;
   529  002642  0E00               	movlw	0
   530  002644  6F21               	movwf	33,b	;volatile
   531                           
   532                           ;mcc_generated_files/system/src/pins.c: 79:     RB1I2C = 0x0;
   533  002646  0E00               	movlw	0
   534  002648  0102               	movlb	2	; () banked
   535  00264A  6F89               	movwf	137,b	;volatile
   536                           
   537                           ;mcc_generated_files/system/src/pins.c: 80:     RB2I2C = 0x0;
   538  00264C  0E00               	movlw	0
   539  00264E  6F88               	movwf	136,b	;volatile
   540                           
   541                           ;mcc_generated_files/system/src/pins.c: 81:     RC3I2C = 0x0;
   542  002650  0E00               	movlw	0
   543  002652  6F87               	movwf	135,b	;volatile
   544                           
   545                           ;mcc_generated_files/system/src/pins.c: 82:     RC4I2C = 0x0;
   546  002654  0E00               	movlw	0
   547  002656  6F86               	movwf	134,b	;volatile
   548                           
   549                           ;mcc_generated_files/system/src/pins.c: 87:     ODCONA = 0x0;
   550  002658  0E00               	movlw	0
   551  00265A  0104               	movlb	4	; () banked
   552  00265C  6F02               	movwf	2,b	;volatile
   553                           
   554                           ;mcc_generated_files/system/src/pins.c: 88:     ODCONB = 0x0;
   555  00265E  0E00               	movlw	0
   556  002660  6F0A               	movwf	10,b	;volatile
   557                           
   558                           ;mcc_generated_files/system/src/pins.c: 89:     ODCONC = 0x30;
   559  002662  0E30               	movlw	48
   560  002664  6F12               	movwf	18,b	;volatile
   561                           
   562                           ;mcc_generated_files/system/src/pins.c: 90:     ODCOND = 0x0;
   563  002666  0E00               	movlw	0
   564  002668  6F1A               	movwf	26,b	;volatile
   565                           
   566                           ;mcc_generated_files/system/src/pins.c: 91:     ODCONE = 0x0;
   567  00266A  0E00               	movlw	0
   568  00266C  6F22               	movwf	34,b	;volatile
   569  00266E                     
   570                           ; BSR set to: 4
   571                           ;mcc_generated_files/system/src/pins.c: 96:     SLRCONA = 0xFF;
   572  00266E  6903               	setf	3,b	;volatile
   573  002670                     
   574                           ; BSR set to: 4
   575                           ;mcc_generated_files/system/src/pins.c: 97:     SLRCONB = 0xFF;
   576  002670  690B               	setf	11,b	;volatile
   577  002672                     
   578                           ; BSR set to: 4
   579                           ;mcc_generated_files/system/src/pins.c: 98:     SLRCONC = 0xFF;
   580  002672  6913               	setf	19,b	;volatile
   581  002674                     
   582                           ; BSR set to: 4
   583                           ;mcc_generated_files/system/src/pins.c: 99:     SLRCOND = 0xFF;
   584  002674  691B               	setf	27,b	;volatile
   585                           
   586                           ;mcc_generated_files/system/src/pins.c: 100:     SLRCONE = 0x7;
   587  002676  0E07               	movlw	7
   588  002678  6F23               	movwf	35,b	;volatile
   589  00267A                     
   590                           ; BSR set to: 4
   591                           ;mcc_generated_files/system/src/pins.c: 105:     INLVLA = 0xFF;
   592  00267A  6904               	setf	4,b	;volatile
   593  00267C                     
   594                           ; BSR set to: 4
   595                           ;mcc_generated_files/system/src/pins.c: 106:     INLVLB = 0xFF;
   596  00267C  690C               	setf	12,b	;volatile
   597  00267E                     
   598                           ; BSR set to: 4
   599                           ;mcc_generated_files/system/src/pins.c: 107:     INLVLC = 0xFF;
   600  00267E  6914               	setf	20,b	;volatile
   601  002680                     
   602                           ; BSR set to: 4
   603                           ;mcc_generated_files/system/src/pins.c: 108:     INLVLD = 0xFF;
   604  002680  691C               	setf	28,b	;volatile
   605                           
   606                           ;mcc_generated_files/system/src/pins.c: 109:     INLVLE = 0xF;
   607  002682  0E0F               	movlw	15
   608  002684  6F24               	movwf	36,b	;volatile
   609                           
   610                           ;mcc_generated_files/system/src/pins.c: 113:     I2C1SCLPPS = 0x15;
   611  002686  0E15               	movlw	21
   612  002688  0102               	movlb	2	; () banked
   613  00268A  6F71               	movwf	113,b	;volatile
   614                           
   615                           ;mcc_generated_files/system/src/pins.c: 114:     RC5PPS = 0x37;
   616  00268C  0E37               	movlw	55
   617  00268E  6F16               	movwf	22,b	;volatile
   618                           
   619                           ;mcc_generated_files/system/src/pins.c: 115:     I2C1SDAPPS = 0x14;
   620  002690  0E14               	movlw	20
   621  002692  6F70               	movwf	112,b	;volatile
   622                           
   623                           ;mcc_generated_files/system/src/pins.c: 116:     RC4PPS = 0x38;
   624  002694  0E38               	movlw	56
   625  002696  6F15               	movwf	21,b	;volatile
   626                           
   627                           ;mcc_generated_files/system/src/pins.c: 121:     IOCAP = 0x0;
   628  002698  0E00               	movlw	0
   629  00269A  0104               	movlb	4	; () banked
   630  00269C  6F05               	movwf	5,b	;volatile
   631                           
   632                           ;mcc_generated_files/system/src/pins.c: 122:     IOCAN = 0x0;
   633  00269E  0E00               	movlw	0
   634  0026A0  6F06               	movwf	6,b	;volatile
   635                           
   636                           ;mcc_generated_files/system/src/pins.c: 123:     IOCAF = 0x0;
   637  0026A2  0E00               	movlw	0
   638  0026A4  6F07               	movwf	7,b	;volatile
   639                           
   640                           ;mcc_generated_files/system/src/pins.c: 124:     IOCBP = 0x0;
   641  0026A6  0E00               	movlw	0
   642  0026A8  6F0D               	movwf	13,b	;volatile
   643                           
   644                           ;mcc_generated_files/system/src/pins.c: 125:     IOCBN = 0x0;
   645  0026AA  0E00               	movlw	0
   646  0026AC  6F0E               	movwf	14,b	;volatile
   647                           
   648                           ;mcc_generated_files/system/src/pins.c: 126:     IOCBF = 0x0;
   649  0026AE  0E00               	movlw	0
   650  0026B0  6F0F               	movwf	15,b	;volatile
   651                           
   652                           ;mcc_generated_files/system/src/pins.c: 127:     IOCCP = 0x0;
   653  0026B2  0E00               	movlw	0
   654  0026B4  6F15               	movwf	21,b	;volatile
   655                           
   656                           ;mcc_generated_files/system/src/pins.c: 128:     IOCCN = 0x0;
   657  0026B6  0E00               	movlw	0
   658  0026B8  6F16               	movwf	22,b	;volatile
   659                           
   660                           ;mcc_generated_files/system/src/pins.c: 129:     IOCCF = 0x0;
   661  0026BA  0E00               	movlw	0
   662  0026BC  6F17               	movwf	23,b	;volatile
   663                           
   664                           ;mcc_generated_files/system/src/pins.c: 130:     IOCEP = 0x0;
   665  0026BE  0E00               	movlw	0
   666  0026C0  6F25               	movwf	37,b	;volatile
   667                           
   668                           ;mcc_generated_files/system/src/pins.c: 131:     IOCEN = 0x0;
   669  0026C2  0E00               	movlw	0
   670  0026C4  6F26               	movwf	38,b	;volatile
   671                           
   672                           ;mcc_generated_files/system/src/pins.c: 132:     IOCEF = 0x0;
   673  0026C6  0E00               	movlw	0
   674  0026C8  6F27               	movwf	39,b	;volatile
   675  0026CA                     
   676                           ; BSR set to: 4
   677  0026CA  0012               	return		;funcret
   678  0026CC                     __end_of_PIN_MANAGER_Initialize:
   679                           	callstack 0
   680                           
   681 ;; *************** function _INTERRUPT_Initialize *****************
   682 ;; Defined at:
   683 ;;		line 42 in file "mcc_generated_files/system/src/interrupt.c"
   684 ;; Parameters:    Size  Location     Type
   685 ;;		None
   686 ;; Auto vars:     Size  Location     Type
   687 ;;		None
   688 ;; Return value:  Size  Location     Type
   689 ;;                  1    wreg      void 
   690 ;; Registers used:
   691 ;;		wreg, status,2, status,0, cstack
   692 ;; Tracked objects:
   693 ;;		On entry : 0/0
   694 ;;		On exit  : 0/0
   695 ;;		Unchanged: 0/0
   696 ;; Data sizes:     COMRAM   BANK5   BANK6   BANK7   BANK8   BANK9  BANK10  BANK11  BANK12  BANK13  BANK14  BANK15  BANK1
      +6  BANK17  BANK18  BANK19  BANK20  BANK21  BANK22  BANK23  BANK24  BANK25  BANK26  BANK27  BANK28  BANK29  BANK30  BANK3
      +1  BANK32  BANK33  BANK34  BANK35  BANK36
   697 ;;      Params:         0       0       0       0       0       0       0       0       0       0       0       0       
      +0       0       0       0       0       0       0       0       0       0       0       0       0       0       0       
      +0       0       0       0       0       0
   698 ;;      Locals:         0       0       0       0       0       0       0       0       0       0       0       0       
      +0       0       0       0       0       0       0       0       0       0       0       0       0       0       0       
      +0       0       0       0       0       0
   699 ;;      Temps:          0       0       0       0       0       0       0       0       0       0       0       0       
      +0       0       0       0       0       0       0       0       0       0       0       0       0       0       0       
      +0       0       0       0       0       0
   700 ;;      Totals:         0       0       0       0       0       0       0       0       0       0       0       0       
      +0       0       0       0       0       0       0       0       0       0       0       0       0       0       0       
      +0       0       0       0       0       0
   701 ;;Total ram usage:        0 bytes
   702 ;; Hardware stack levels used: 1
   703 ;; Hardware stack levels required when called: 5
   704 ;; This function calls:
   705 ;;		_INT0_SetInterruptHandler
   706 ;;		_INT1_SetInterruptHandler
   707 ;;		_INT2_SetInterruptHandler
   708 ;; This function is called by:
   709 ;;		_SYSTEM_Initialize
   710 ;; This function uses a non-reentrant model
   711 ;;
   712                           
   713                           	psect	text3
   714  00287E                     __ptext3:
   715                           	callstack 0
   716  00287E                     _INTERRUPT_Initialize:
   717                           	callstack 120
   718  00287E                     
   719                           ;mcc_generated_files/system/src/interrupt.c: 45:     INTCON0bits.IPEN = 0;
   720  00287E  9AD6               	bcf	214,5,c	;volatile
   721                           
   722                           ;mcc_generated_files/system/src/interrupt.c: 49:     (PIR1bits.INT0IF = 0);
   723  002880  90AF               	bcf	175,0,c	;volatile
   724                           
   725                           ;mcc_generated_files/system/src/interrupt.c: 50:     (INTCON0bits.INT0EDG = 1);
   726  002882  80D6               	bsf	214,0,c	;volatile
   727  002884                     
   728                           ;mcc_generated_files/system/src/interrupt.c: 52:     INT0_SetInterruptHandler(INT0_Defau
      +                          ltInterruptHandler);
   729  002884  0E00               	movlw	0
   730  002886  6E1D               	movwf	INT0_SetInterruptHandler@InterruptHandler^(0+1280),c
   731  002888  0E00               	movlw	0
   732  00288A  6E1E               	movwf	(INT0_SetInterruptHandler@InterruptHandler+1)^(0+1280),c
   733  00288C  0E00               	movlw	0
   734  00288E  6E1F               	movwf	(INT0_SetInterruptHandler@InterruptHandler+2)^(0+1280),c
   735  002890  EC67  F015         	call	_INT0_SetInterruptHandler	;wreg free
   736  002894                     
   737                           ;mcc_generated_files/system/src/interrupt.c: 57:     (PIR6bits.INT1IF = 0);
   738  002894  90B4               	bcf	180,0,c	;volatile
   739  002896                     
   740                           ;mcc_generated_files/system/src/interrupt.c: 58:     (INTCON0bits.INT1EDG = 1);
   741  002896  82D6               	bsf	214,1,c	;volatile
   742                           
   743                           ;mcc_generated_files/system/src/interrupt.c: 60:     INT1_SetInterruptHandler(INT1_Defau
      +                          ltInterruptHandler);
   744  002898  0E00               	movlw	0
   745  00289A  6E1D               	movwf	INT1_SetInterruptHandler@InterruptHandler^(0+1280),c
   746  00289C  0E00               	movlw	0
   747  00289E  6E1E               	movwf	(INT1_SetInterruptHandler@InterruptHandler+1)^(0+1280),c
   748  0028A0  0E00               	movlw	0
   749  0028A2  6E1F               	movwf	(INT1_SetInterruptHandler@InterruptHandler+2)^(0+1280),c
   750  0028A4  EC60  F015         	call	_INT1_SetInterruptHandler	;wreg free
   751  0028A8                     
   752                           ;mcc_generated_files/system/src/interrupt.c: 65:     (PIR10bits.INT2IF = 0);
   753  0028A8  90B8               	bcf	184,0,c	;volatile
   754  0028AA                     
   755                           ;mcc_generated_files/system/src/interrupt.c: 66:     (INTCON0bits.INT2EDG = 1);
   756  0028AA  84D6               	bsf	214,2,c	;volatile
   757                           
   758                           ;mcc_generated_files/system/src/interrupt.c: 68:     INT2_SetInterruptHandler(INT2_Defau
      +                          ltInterruptHandler);
   759  0028AC  0E00               	movlw	0
   760  0028AE  6E1D               	movwf	INT2_SetInterruptHandler@InterruptHandler^(0+1280),c
   761  0028B0  0E00               	movlw	0
   762  0028B2  6E1E               	movwf	(INT2_SetInterruptHandler@InterruptHandler+1)^(0+1280),c
   763  0028B4  0E00               	movlw	0
   764  0028B6  6E1F               	movwf	(INT2_SetInterruptHandler@InterruptHandler+2)^(0+1280),c
   765  0028B8  EC59  F015         	call	_INT2_SetInterruptHandler	;wreg free
   766  0028BC  0012               	return		;funcret
   767  0028BE                     __end_of_INTERRUPT_Initialize:
   768                           	callstack 0
   769                           
   770 ;; *************** function _INT2_SetInterruptHandler *****************
   771 ;; Defined at:
   772 ;;		line 180 in file "mcc_generated_files/system/src/interrupt.c"
   773 ;; Parameters:    Size  Location     Type
   774 ;;  InterruptHan    3    3[COMRAM] PTR FTN()void 
   775 ;;		 -> INT2_DefaultInterruptHandler(1), 
   776 ;; Auto vars:     Size  Location     Type
   777 ;;		None
   778 ;; Return value:  Size  Location     Type
   779 ;;                  1    wreg      void 
   780 ;; Registers used:
   781 ;;		wreg, status,2, status,0
   782 ;; Tracked objects:
   783 ;;		On entry : 0/0
   784 ;;		On exit  : 0/0
   785 ;;		Unchanged: 0/0
   786 ;; Data sizes:     COMRAM   BANK5   BANK6   BANK7   BANK8   BANK9  BANK10  BANK11  BANK12  BANK13  BANK14  BANK15  BANK1
      +6  BANK17  BANK18  BANK19  BANK20  BANK21  BANK22  BANK23  BANK24  BANK25  BANK26  BANK27  BANK28  BANK29  BANK30  BANK3
      +1  BANK32  BANK33  BANK34  BANK35  BANK36
   787 ;;      Params:         3       0       0       0       0       0       0       0       0       0       0       0       
      +0       0       0       0       0       0       0       0       0       0       0       0       0       0       0       
      +0       0       0       0       0       0
   788 ;;      Locals:         0       0       0       0       0       0       0       0       0       0       0       0       
      +0       0       0       0       0       0       0       0       0       0       0       0       0       0       0       
      +0       0       0       0       0       0
   789 ;;      Temps:          0       0       0       0       0       0       0       0       0       0       0       0       
      +0       0       0       0       0       0       0       0       0       0       0       0       0       0       0       
      +0       0       0       0       0       0
   790 ;;      Totals:         3       0       0       0       0       0       0       0       0       0       0       0       
      +0       0       0       0       0       0       0       0       0       0       0       0       0       0       0       
      +0       0       0       0       0       0
   791 ;;Total ram usage:        3 bytes
   792 ;; Hardware stack levels used: 1
   793 ;; Hardware stack levels required when called: 4
   794 ;; This function calls:
   795 ;;		Nothing
   796 ;; This function is called by:
   797 ;;		_INTERRUPT_Initialize
   798 ;; This function uses a non-reentrant model
   799 ;;
   800                           
   801                           	psect	text4
   802  002AB2                     __ptext4:
   803                           	callstack 0
   804  002AB2                     _INT2_SetInterruptHandler:
   805                           	callstack 120
   806  002AB2                     
   807                           ;mcc_generated_files/system/src/interrupt.c: 181:     INT2_InterruptHandler = InterruptH
      +                          andler;
   808  002AB2  C51D  F50E         	movff	INT2_SetInterruptHandler@InterruptHandler,_INT2_InterruptHandler
   809  002AB6  C51E  F50F         	movff	INT2_SetInterruptHandler@InterruptHandler+1,_INT2_InterruptHandler+1
   810  002ABA  C51F  F510         	movff	INT2_SetInterruptHandler@InterruptHandler+2,_INT2_InterruptHandler+2
   811  002ABE  0012               	return		;funcret
   812  002AC0                     __end_of_INT2_SetInterruptHandler:
   813                           	callstack 0
   814                           
   815 ;; *************** function _INT1_SetInterruptHandler *****************
   816 ;; Defined at:
   817 ;;		line 154 in file "mcc_generated_files/system/src/interrupt.c"
   818 ;; Parameters:    Size  Location     Type
   819 ;;  InterruptHan    3    3[COMRAM] PTR FTN()void 
   820 ;;		 -> INT1_DefaultInterruptHandler(1), 
   821 ;; Auto vars:     Size  Location     Type
   822 ;;		None
   823 ;; Return value:  Size  Location     Type
   824 ;;                  1    wreg      void 
   825 ;; Registers used:
   826 ;;		wreg, status,2, status,0
   827 ;; Tracked objects:
   828 ;;		On entry : 0/0
   829 ;;		On exit  : 0/0
   830 ;;		Unchanged: 0/0
   831 ;; Data sizes:     COMRAM   BANK5   BANK6   BANK7   BANK8   BANK9  BANK10  BANK11  BANK12  BANK13  BANK14  BANK15  BANK1
      +6  BANK17  BANK18  BANK19  BANK20  BANK21  BANK22  BANK23  BANK24  BANK25  BANK26  BANK27  BANK28  BANK29  BANK30  BANK3
      +1  BANK32  BANK33  BANK34  BANK35  BANK36
   832 ;;      Params:         3       0       0       0       0       0       0       0       0       0       0       0       
      +0       0       0       0       0       0       0       0       0       0       0       0       0       0       0       
      +0       0       0       0       0       0
   833 ;;      Locals:         0       0       0       0       0       0       0       0       0       0       0       0       
      +0       0       0       0       0       0       0       0       0       0       0       0       0       0       0       
      +0       0       0       0       0       0
   834 ;;      Temps:          0       0       0       0       0       0       0       0       0       0       0       0       
      +0       0       0       0       0       0       0       0       0       0       0       0       0       0       0       
      +0       0       0       0       0       0
   835 ;;      Totals:         3       0       0       0       0       0       0       0       0       0       0       0       
      +0       0       0       0       0       0       0       0       0       0       0       0       0       0       0       
      +0       0       0       0       0       0
   836 ;;Total ram usage:        3 bytes
   837 ;; Hardware stack levels used: 1
   838 ;; Hardware stack levels required when called: 4
   839 ;; This function calls:
   840 ;;		Nothing
   841 ;; This function is called by:
   842 ;;		_INTERRUPT_Initialize
   843 ;; This function uses a non-reentrant model
   844 ;;
   845                           
   846                           	psect	text5
   847  002AC0                     __ptext5:
   848                           	callstack 0
   849  002AC0                     _INT1_SetInterruptHandler:
   850                           	callstack 120
   851  002AC0                     
   852                           ;mcc_generated_files/system/src/interrupt.c: 155:     INT1_InterruptHandler = InterruptH
      +                          andler;
   853  002AC0  C51D  F511         	movff	INT1_SetInterruptHandler@InterruptHandler,_INT1_InterruptHandler
   854  002AC4  C51E  F512         	movff	INT1_SetInterruptHandler@InterruptHandler+1,_INT1_InterruptHandler+1
   855  002AC8  C51F  F513         	movff	INT1_SetInterruptHandler@InterruptHandler+2,_INT1_InterruptHandler+2
   856  002ACC  0012               	return		;funcret
   857  002ACE                     __end_of_INT1_SetInterruptHandler:
   858                           	callstack 0
   859                           
   860 ;; *************** function _INT0_SetInterruptHandler *****************
   861 ;; Defined at:
   862 ;;		line 128 in file "mcc_generated_files/system/src/interrupt.c"
   863 ;; Parameters:    Size  Location     Type
   864 ;;  InterruptHan    3    3[COMRAM] PTR FTN()void 
   865 ;;		 -> INT0_DefaultInterruptHandler(1), 
   866 ;; Auto vars:     Size  Location     Type
   867 ;;		None
   868 ;; Return value:  Size  Location     Type
   869 ;;                  1    wreg      void 
   870 ;; Registers used:
   871 ;;		wreg, status,2, status,0
   872 ;; Tracked objects:
   873 ;;		On entry : 0/0
   874 ;;		On exit  : 0/0
   875 ;;		Unchanged: 0/0
   876 ;; Data sizes:     COMRAM   BANK5   BANK6   BANK7   BANK8   BANK9  BANK10  BANK11  BANK12  BANK13  BANK14  BANK15  BANK1
      +6  BANK17  BANK18  BANK19  BANK20  BANK21  BANK22  BANK23  BANK24  BANK25  BANK26  BANK27  BANK28  BANK29  BANK30  BANK3
      +1  BANK32  BANK33  BANK34  BANK35  BANK36
   877 ;;      Params:         3       0       0       0       0       0       0       0       0       0       0       0       
      +0       0       0       0       0       0       0       0       0       0       0       0       0       0       0       
      +0       0       0       0       0       0
   878 ;;      Locals:         0       0       0       0       0       0       0       0       0       0       0       0       
      +0       0       0       0       0       0       0       0       0       0       0       0       0       0       0       
      +0       0       0       0       0       0
   879 ;;      Temps:          0       0       0       0       0       0       0       0       0       0       0       0       
      +0       0       0       0       0       0       0       0       0       0       0       0       0       0       0       
      +0       0       0       0       0       0
   880 ;;      Totals:         3       0       0       0       0       0       0       0       0       0       0       0       
      +0       0       0       0       0       0       0       0       0       0       0       0       0       0       0       
      +0       0       0       0       0       0
   881 ;;Total ram usage:        3 bytes
   882 ;; Hardware stack levels used: 1
   883 ;; Hardware stack levels required when called: 4
   884 ;; This function calls:
   885 ;;		Nothing
   886 ;; This function is called by:
   887 ;;		_INTERRUPT_Initialize
   888 ;; This function uses a non-reentrant model
   889 ;;
   890                           
   891                           	psect	text6
   892  002ACE                     __ptext6:
   893                           	callstack 0
   894  002ACE                     _INT0_SetInterruptHandler:
   895                           	callstack 120
   896  002ACE                     
   897                           ;mcc_generated_files/system/src/interrupt.c: 129:     INT0_InterruptHandler = InterruptH
      +                          andler;
   898  002ACE  C51D  F514         	movff	INT0_SetInterruptHandler@InterruptHandler,_INT0_InterruptHandler
   899  002AD2  C51E  F515         	movff	INT0_SetInterruptHandler@InterruptHandler+1,_INT0_InterruptHandler+1
   900  002AD6  C51F  F516         	movff	INT0_SetInterruptHandler@InterruptHandler+2,_INT0_InterruptHandler+2
   901  002ADA  0012               	return		;funcret
   902  002ADC                     __end_of_INT0_SetInterruptHandler:
   903                           	callstack 0
   904                           
   905 ;; *************** function _I2C1_Initialize *****************
   906 ;; Defined at:
   907 ;;		line 91 in file "mcc_generated_files/i2c_host/src/i2c1.c"
   908 ;; Parameters:    Size  Location     Type
   909 ;;		None
   910 ;; Auto vars:     Size  Location     Type
   911 ;;		None
   912 ;; Return value:  Size  Location     Type
   913 ;;                  1    wreg      void 
   914 ;; Registers used:
   915 ;;		wreg, status,2, status,0, cstack
   916 ;; Tracked objects:
   917 ;;		On entry : 0/0
   918 ;;		On exit  : 0/0
   919 ;;		Unchanged: 0/0
   920 ;; Data sizes:     COMRAM   BANK5   BANK6   BANK7   BANK8   BANK9  BANK10  BANK11  BANK12  BANK13  BANK14  BANK15  BANK1
      +6  BANK17  BANK18  BANK19  BANK20  BANK21  BANK22  BANK23  BANK24  BANK25  BANK26  BANK27  BANK28  BANK29  BANK30  BANK3
      +1  BANK32  BANK33  BANK34  BANK35  BANK36
   921 ;;      Params:         0       0       0       0       0       0       0       0       0       0       0       0       
      +0       0       0       0       0       0       0       0       0       0       0       0       0       0       0       
      +0       0       0       0       0       0
   922 ;;      Locals:         0       0       0       0       0       0       0       0       0       0       0       0       
      +0       0       0       0       0       0       0       0       0       0       0       0       0       0       0       
      +0       0       0       0       0       0
   923 ;;      Temps:          0       0       0       0       0       0       0       0       0       0       0       0       
      +0       0       0       0       0       0       0       0       0       0       0       0       0       0       0       
      +0       0       0       0       0       0
   924 ;;      Totals:         0       0       0       0       0       0       0       0       0       0       0       0       
      +0       0       0       0       0       0       0       0       0       0       0       0       0       0       0       
      +0       0       0       0       0       0
   925 ;;Total ram usage:        0 bytes
   926 ;; Hardware stack levels used: 1
   927 ;; Hardware stack levels required when called: 5
   928 ;; This function calls:
   929 ;;		_I2C1_CallbackRegister
   930 ;;		_I2C1_InterruptsEnable
   931 ;; This function is called by:
   932 ;;		_SYSTEM_Initialize
   933 ;; This function uses a non-reentrant model
   934 ;;
   935                           
   936                           	psect	text7
   937  002826                     __ptext7:
   938                           	callstack 0
   939  002826                     _I2C1_Initialize:
   940                           	callstack 120
   941  002826                     
   942                           ;mcc_generated_files/i2c_host/src/i2c1.c: 94:     I2C1CON0 = 0x4;
   943  002826  0E04               	movlw	4
   944  002828  0102               	movlb	2	; () banked
   945  00282A  6F94               	movwf	148,b	;volatile
   946                           
   947                           ;mcc_generated_files/i2c_host/src/i2c1.c: 96:     I2C1CON1 = 0x80;
   948  00282C  0E80               	movlw	128
   949  00282E  6F95               	movwf	149,b	;volatile
   950                           
   951                           ;mcc_generated_files/i2c_host/src/i2c1.c: 98:     I2C1CON2 = 0x8;
   952  002830  0E08               	movlw	8
   953  002832  6F96               	movwf	150,b	;volatile
   954                           
   955                           ;mcc_generated_files/i2c_host/src/i2c1.c: 100:     I2C1CLK = 0x3;
   956  002834  0E03               	movlw	3
   957  002836  6F9C               	movwf	156,b	;volatile
   958                           
   959                           ;mcc_generated_files/i2c_host/src/i2c1.c: 102:     I2C1PIR = 0x0;
   960  002838  0E00               	movlw	0
   961  00283A  6F9A               	movwf	154,b	;volatile
   962                           
   963                           ;mcc_generated_files/i2c_host/src/i2c1.c: 104:     I2C1PIE = 0x0;
   964  00283C  0E00               	movlw	0
   965  00283E  6F9B               	movwf	155,b	;volatile
   966                           
   967                           ;mcc_generated_files/i2c_host/src/i2c1.c: 106:     I2C1ERR = 0x0;
   968  002840  0E00               	movlw	0
   969  002842  6F97               	movwf	151,b	;volatile
   970                           
   971                           ;mcc_generated_files/i2c_host/src/i2c1.c: 108:     I2C1CNT = 0x0;
   972  002844  0E00               	movlw	0
   973  002846  6F8D               	movwf	141,b	;volatile
   974                           
   975                           ;mcc_generated_files/i2c_host/src/i2c1.c: 110:     RC4I2C = 0x51;
   976  002848  0E51               	movlw	81
   977  00284A  6F86               	movwf	134,b	;volatile
   978  00284C                     
   979                           ; BSR set to: 2
   980                           ;mcc_generated_files/i2c_host/src/i2c1.c: 111:     I2C1_InterruptsEnable();
   981  00284C  EC32  F015         	call	_I2C1_InterruptsEnable	;wreg free
   982  002850                     
   983                           ;mcc_generated_files/i2c_host/src/i2c1.c: 115:     I2C1PIEbits.SCIE = 0;
   984  002850  0102               	movlb	2	; () banked
   985  002852  919B               	bcf	155,0,b	;volatile
   986  002854                     
   987                           ; BSR set to: 2
   988                           ;mcc_generated_files/i2c_host/src/i2c1.c: 116:     I2C1PIEbits.PCIE = 0;
   989  002854  959B               	bcf	155,2,b	;volatile
   990  002856                     
   991                           ; BSR set to: 2
   992                           ;mcc_generated_files/i2c_host/src/i2c1.c: 117:     I2C1CON0bits.EN = 1;
   993  002856  8F94               	bsf	148,7,b	;volatile
   994  002858                     
   995                           ;mcc_generated_files/i2c_host/src/i2c1.c: 119:     __nop();
   996  002858  F000               	nop	
   997  00285A                     
   998                           ;mcc_generated_files/i2c_host/src/i2c1.c: 120:     __nop();
   999  00285A  F000               	nop	
  1000  00285C                     
  1001                           ;mcc_generated_files/i2c_host/src/i2c1.c: 121:     __nop();
  1002  00285C  F000               	nop	
  1003  00285E                     
  1004                           ;mcc_generated_files/i2c_host/src/i2c1.c: 122:     __nop();
  1005  00285E  F000               	nop	
  1006  002860                     
  1007                           ;mcc_generated_files/i2c_host/src/i2c1.c: 123:     __nop();
  1008  002860  F000               	nop	
  1009  002862                     
  1010                           ;mcc_generated_files/i2c_host/src/i2c1.c: 124:     __nop();
  1011  002862  F000               	nop	
  1012  002864                     
  1013                           ;mcc_generated_files/i2c_host/src/i2c1.c: 125:     I2C1PIRbits.SCIF = 0;
  1014  002864  0102               	movlb	2	; () banked
  1015  002866  919A               	bcf	154,0,b	;volatile
  1016  002868                     
  1017                           ; BSR set to: 2
  1018                           ;mcc_generated_files/i2c_host/src/i2c1.c: 126:     I2C1PIRbits.PCIF = 0;
  1019  002868  959A               	bcf	154,2,b	;volatile
  1020  00286A                     
  1021                           ; BSR set to: 2
  1022                           ;mcc_generated_files/i2c_host/src/i2c1.c: 127:     I2C1PIEbits.PCIE = 1;
  1023  00286A  859B               	bsf	155,2,b	;volatile
  1024  00286C                     
  1025                           ; BSR set to: 2
  1026                           ;mcc_generated_files/i2c_host/src/i2c1.c: 128:     I2C1_CallbackRegister(I2C1_DefaultCal
      +                          lback);
  1027  00286C  0E3C               	movlw	low _I2C1_DefaultCallback
  1028  00286E  6E1D               	movwf	I2C1_CallbackRegister@callbackHandler^(0+1280),c
  1029  002870  0E2B               	movlw	high _I2C1_DefaultCallback
  1030  002872  6E1E               	movwf	(I2C1_CallbackRegister@callbackHandler+1)^(0+1280),c
  1031  002874  0E00               	movlw	low (_I2C1_DefaultCallback shr (0+16))
  1032  002876  6E1F               	movwf	(I2C1_CallbackRegister@callbackHandler+2)^(0+1280),c
  1033  002878  ECB4  F014         	call	_I2C1_CallbackRegister	;wreg free
  1034  00287C  0012               	return		;funcret
  1035  00287E                     __end_of_I2C1_Initialize:
  1036                           	callstack 0
  1037                           
  1038 ;; *************** function _I2C1_InterruptsEnable *****************
  1039 ;; Defined at:
  1040 ;;		line 446 in file "mcc_generated_files/i2c_host/src/i2c1.c"
  1041 ;; Parameters:    Size  Location     Type
  1042 ;;		None
  1043 ;; Auto vars:     Size  Location     Type
  1044 ;;		None
  1045 ;; Return value:  Size  Location     Type
  1046 ;;                  1    wreg      void 
  1047 ;; Registers used:
  1048 ;;		None
  1049 ;; Tracked objects:
  1050 ;;		On entry : 0/0
  1051 ;;		On exit  : 0/0
  1052 ;;		Unchanged: 0/0
  1053 ;; Data sizes:     COMRAM   BANK5   BANK6   BANK7   BANK8   BANK9  BANK10  BANK11  BANK12  BANK13  BANK14  BANK15  BANK1
      +6  BANK17  BANK18  BANK19  BANK20  BANK21  BANK22  BANK23  BANK24  BANK25  BANK26  BANK27  BANK28  BANK29  BANK30  BANK3
      +1  BANK32  BANK33  BANK34  BANK35  BANK36
  1054 ;;      Params:         0       0       0       0       0       0       0       0       0       0       0       0       
      +0       0       0       0       0       0       0       0       0       0       0       0       0       0       0       
      +0       0       0       0       0       0
  1055 ;;      Locals:         0       0       0       0       0       0       0       0       0       0       0       0       
      +0       0       0       0       0       0       0       0       0       0       0       0       0       0       0       
      +0       0       0       0       0       0
  1056 ;;      Temps:          0       0       0       0       0       0       0       0       0       0       0       0       
      +0       0       0       0       0       0       0       0       0       0       0       0       0       0       0       
      +0       0       0       0       0       0
  1057 ;;      Totals:         0       0       0       0       0       0       0       0       0       0       0       0       
      +0       0       0       0       0       0       0       0       0       0       0       0       0       0       0       
      +0       0       0       0       0       0
  1058 ;;Total ram usage:        0 bytes
  1059 ;; Hardware stack levels used: 1
  1060 ;; Hardware stack levels required when called: 4
  1061 ;; This function calls:
  1062 ;;		Nothing
  1063 ;; This function is called by:
  1064 ;;		_I2C1_Initialize
  1065 ;; This function uses a non-reentrant model
  1066 ;;
  1067                           
  1068                           	psect	text8
  1069  002A64                     __ptext8:
  1070                           	callstack 0
  1071  002A64                     _I2C1_InterruptsEnable:
  1072                           	callstack 120
  1073  002A64                     
  1074                           ;mcc_generated_files/i2c_host/src/i2c1.c: 448:     PIE7bits.I2C1IE = 1;
  1075  002A64  84A5               	bsf	165,2,c	;volatile
  1076                           
  1077                           ;mcc_generated_files/i2c_host/src/i2c1.c: 449:     PIE7bits.I2C1EIE = 1;
  1078  002A66  86A5               	bsf	165,3,c	;volatile
  1079                           
  1080                           ;mcc_generated_files/i2c_host/src/i2c1.c: 450:     PIE7bits.I2C1RXIE = 1;
  1081  002A68  80A5               	bsf	165,0,c	;volatile
  1082                           
  1083                           ;mcc_generated_files/i2c_host/src/i2c1.c: 451:     PIE7bits.I2C1TXIE = 1;
  1084  002A6A  82A5               	bsf	165,1,c	;volatile
  1085                           
  1086                           ;mcc_generated_files/i2c_host/src/i2c1.c: 453:     I2C1PIEbits.PCIE = 1;
  1087  002A6C  0102               	movlb	2	; () banked
  1088  002A6E  859B               	bsf	155,2,b	;volatile
  1089                           
  1090                           ;mcc_generated_files/i2c_host/src/i2c1.c: 454:     I2C1PIEbits.RSCIE = 1;
  1091  002A70  839B               	bsf	155,1,b	;volatile
  1092                           
  1093                           ;mcc_generated_files/i2c_host/src/i2c1.c: 455:     I2C1PIEbits.CNTIE = 1;
  1094  002A72  8F9B               	bsf	155,7,b	;volatile
  1095                           
  1096                           ;mcc_generated_files/i2c_host/src/i2c1.c: 456:     I2C1ERRbits.NACKIE = 1;
  1097  002A74  8197               	bsf	151,0,b	;volatile
  1098  002A76                     
  1099                           ; BSR set to: 2
  1100  002A76  0012               	return		;funcret
  1101  002A78                     __end_of_I2C1_InterruptsEnable:
  1102                           	callstack 0
  1103                           
  1104 ;; *************** function _I2C1_CallbackRegister *****************
  1105 ;; Defined at:
  1106 ;;		line 214 in file "mcc_generated_files/i2c_host/src/i2c1.c"
  1107 ;; Parameters:    Size  Location     Type
  1108 ;;  callbackHand    3    3[COMRAM] PTR FTN()void 
  1109 ;;		 -> I2C1_DefaultCallback(1), 
  1110 ;; Auto vars:     Size  Location     Type
  1111 ;;		None
  1112 ;; Return value:  Size  Location     Type
  1113 ;;                  1    wreg      void 
  1114 ;; Registers used:
  1115 ;;		wreg, status,2, status,0
  1116 ;; Tracked objects:
  1117 ;;		On entry : 0/0
  1118 ;;		On exit  : 0/0
  1119 ;;		Unchanged: 0/0
  1120 ;; Data sizes:     COMRAM   BANK5   BANK6   BANK7   BANK8   BANK9  BANK10  BANK11  BANK12  BANK13  BANK14  BANK15  BANK1
      +6  BANK17  BANK18  BANK19  BANK20  BANK21  BANK22  BANK23  BANK24  BANK25  BANK26  BANK27  BANK28  BANK29  BANK30  BANK3
      +1  BANK32  BANK33  BANK34  BANK35  BANK36
  1121 ;;      Params:         3       0       0       0       0       0       0       0       0       0       0       0       
      +0       0       0       0       0       0       0       0       0       0       0       0       0       0       0       
      +0       0       0       0       0       0
  1122 ;;      Locals:         0       0       0       0       0       0       0       0       0       0       0       0       
      +0       0       0       0       0       0       0       0       0       0       0       0       0       0       0       
      +0       0       0       0       0       0
  1123 ;;      Temps:          0       0       0       0       0       0       0       0       0       0       0       0       
      +0       0       0       0       0       0       0       0       0       0       0       0       0       0       0       
      +0       0       0       0       0       0
  1124 ;;      Totals:         3       0       0       0       0       0       0       0       0       0       0       0       
      +0       0       0       0       0       0       0       0       0       0       0       0       0       0       0       
      +0       0       0       0       0       0
  1125 ;;Total ram usage:        3 bytes
  1126 ;; Hardware stack levels used: 1
  1127 ;; Hardware stack levels required when called: 4
  1128 ;; This function calls:
  1129 ;;		Nothing
  1130 ;; This function is called by:
  1131 ;;		_I2C1_Initialize
  1132 ;;		_I2C1_Deinitialize
  1133 ;; This function uses a non-reentrant model
  1134 ;;
  1135                           
  1136                           	psect	text9
  1137  002968                     __ptext9:
  1138                           	callstack 0
  1139  002968                     _I2C1_CallbackRegister:
  1140                           	callstack 120
  1141  002968                     
  1142                           ;mcc_generated_files/i2c_host/src/i2c1.c: 214: void I2C1_CallbackRegister(void (*callbac
      +                          kHandler)(void));mcc_generated_files/i2c_host/src/i2c1.c: 215: {;mcc_generated_files/i2c
      +                          _host/src/i2c1.c: 216:     if (callbackHandler != ((void*)0))
  1143  002968  501D               	movf	I2C1_CallbackRegister@callbackHandler^(0+1280),w,c
  1144  00296A  101E               	iorwf	(I2C1_CallbackRegister@callbackHandler+1)^(0+1280),w,c
  1145  00296C  101F               	iorwf	(I2C1_CallbackRegister@callbackHandler+2)^(0+1280),w,c
  1146  00296E  B4D8               	btfsc	status,2,c
  1147  002970  EFBC  F014         	goto	u481
  1148  002974  EFBE  F014         	goto	u480
  1149  002978                     u481:
  1150  002978  EFC4  F014         	goto	l154
  1151  00297C                     u480:
  1152  00297C                     
  1153                           ;mcc_generated_files/i2c_host/src/i2c1.c: 217:     {;mcc_generated_files/i2c_host/src/i2
      +                          c1.c: 218:         I2C1_Callback = callbackHandler;
  1154  00297C  C51D  F517         	movff	I2C1_CallbackRegister@callbackHandler,_I2C1_Callback
  1155  002980  C51E  F518         	movff	I2C1_CallbackRegister@callbackHandler+1,_I2C1_Callback+1
  1156  002984  C51F  F519         	movff	I2C1_CallbackRegister@callbackHandler+2,_I2C1_Callback+2
  1157  002988                     l154:
  1158  002988  0012               	return		;funcret
  1159  00298A                     __end_of_I2C1_CallbackRegister:
  1160                           	callstack 0
  1161                           
  1162 ;; *************** function _CLOCK_Initialize *****************
  1163 ;; Defined at:
  1164 ;;		line 37 in file "mcc_generated_files/system/src/clock.c"
  1165 ;; Parameters:    Size  Location     Type
  1166 ;;		None
  1167 ;; Auto vars:     Size  Location     Type
  1168 ;;		None
  1169 ;; Return value:  Size  Location     Type
  1170 ;;                  1    wreg      void 
  1171 ;; Registers used:
  1172 ;;		wreg, status,2
  1173 ;; Tracked objects:
  1174 ;;		On entry : 0/0
  1175 ;;		On exit  : 0/0
  1176 ;;		Unchanged: 0/0
  1177 ;; Data sizes:     COMRAM   BANK5   BANK6   BANK7   BANK8   BANK9  BANK10  BANK11  BANK12  BANK13  BANK14  BANK15  BANK1
      +6  BANK17  BANK18  BANK19  BANK20  BANK21  BANK22  BANK23  BANK24  BANK25  BANK26  BANK27  BANK28  BANK29  BANK30  BANK3
      +1  BANK32  BANK33  BANK34  BANK35  BANK36
  1178 ;;      Params:         0       0       0       0       0       0       0       0       0       0       0       0       
      +0       0       0       0       0       0       0       0       0       0       0       0       0       0       0       
      +0       0       0       0       0       0
  1179 ;;      Locals:         0       0       0       0       0       0       0       0       0       0       0       0       
      +0       0       0       0       0       0       0       0       0       0       0       0       0       0       0       
      +0       0       0       0       0       0
  1180 ;;      Temps:          0       0       0       0       0       0       0       0       0       0       0       0       
      +0       0       0       0       0       0       0       0       0       0       0       0       0       0       0       
      +0       0       0       0       0       0
  1181 ;;      Totals:         0       0       0       0       0       0       0       0       0       0       0       0       
      +0       0       0       0       0       0       0       0       0       0       0       0       0       0       0       
      +0       0       0       0       0       0
  1182 ;;Total ram usage:        0 bytes
  1183 ;; Hardware stack levels used: 1
  1184 ;; Hardware stack levels required when called: 4
  1185 ;; This function calls:
  1186 ;;		Nothing
  1187 ;; This function is called by:
  1188 ;;		_SYSTEM_Initialize
  1189 ;; This function uses a non-reentrant model
  1190 ;;
  1191                           
  1192                           	psect	text10
  1193  0029AA                     __ptext10:
  1194                           	callstack 0
  1195  0029AA                     _CLOCK_Initialize:
  1196                           	callstack 121
  1197  0029AA                     
  1198                           ;mcc_generated_files/system/src/clock.c: 41:     OSCCON1 = 0x62;
  1199  0029AA  0E62               	movlw	98
  1200  0029AC  0100               	movlb	0	; () banked
  1201  0029AE  6FAD               	movwf	173,b	;volatile
  1202                           
  1203                           ;mcc_generated_files/system/src/clock.c: 43:     OSCCON3 = 0x0;
  1204  0029B0  0E00               	movlw	0
  1205  0029B2  6FAF               	movwf	175,b	;volatile
  1206                           
  1207                           ;mcc_generated_files/system/src/clock.c: 45:     OSCEN = 0x0;
  1208  0029B4  0E00               	movlw	0
  1209  0029B6  6FB3               	movwf	179,b	;volatile
  1210                           
  1211                           ;mcc_generated_files/system/src/clock.c: 47:     OSCFRQ = 0x2;
  1212  0029B8  0E02               	movlw	2
  1213  0029BA  6FB1               	movwf	177,b	;volatile
  1214                           
  1215                           ;mcc_generated_files/system/src/clock.c: 49:     OSCTUNE = 0x0;
  1216  0029BC  0E00               	movlw	0
  1217  0029BE  6FB0               	movwf	176,b	;volatile
  1218                           
  1219                           ;mcc_generated_files/system/src/clock.c: 51:     ACTCON = 0x0;
  1220  0029C0  0E00               	movlw	0
  1221  0029C2  6FAC               	movwf	172,b	;volatile
  1222  0029C4                     
  1223                           ; BSR set to: 0
  1224  0029C4  0012               	return		;funcret
  1225  0029C6                     __end_of_CLOCK_Initialize:
  1226                           	callstack 0
  1227                           
  1228 ;; *************** function _INTERRUPT_InterruptManager *****************
  1229 ;; Defined at:
  1230 ;;		line 80 in file "mcc_generated_files/system/src/interrupt.c"
  1231 ;; Parameters:    Size  Location     Type
  1232 ;;		None
  1233 ;; Auto vars:     Size  Location     Type
  1234 ;;		None
  1235 ;; Return value:  Size  Location     Type
  1236 ;;                  1    wreg      void 
  1237 ;; Registers used:
  1238 ;;		wreg, fsr2l, fsr2h, status,2, status,0, pcl, pclath, pclatu, tosl, cstack
  1239 ;; Tracked objects:
  1240 ;;		On entry : 0/0
  1241 ;;		On exit  : 0/0
  1242 ;;		Unchanged: 0/0
  1243 ;; Data sizes:     COMRAM   BANK5   BANK6   BANK7   BANK8   BANK9  BANK10  BANK11  BANK12  BANK13  BANK14  BANK15  BANK1
      +6  BANK17  BANK18  BANK19  BANK20  BANK21  BANK22  BANK23  BANK24  BANK25  BANK26  BANK27  BANK28  BANK29  BANK30  BANK3
      +1  BANK32  BANK33  BANK34  BANK35  BANK36
  1244 ;;      Params:         0       0       0       0       0       0       0       0       0       0       0       0       
      +0       0       0       0       0       0       0       0       0       0       0       0       0       0       0       
      +0       0       0       0       0       0
  1245 ;;      Locals:         0       0       0       0       0       0       0       0       0       0       0       0       
      +0       0       0       0       0       0       0       0       0       0       0       0       0       0       0       
      +0       0       0       0       0       0
  1246 ;;      Temps:          2       0       0       0       0       0       0       0       0       0       0       0       
      +0       0       0       0       0       0       0       0       0       0       0       0       0       0       0       
      +0       0       0       0       0       0
  1247 ;;      Totals:         2       0       0       0       0       0       0       0       0       0       0       0       
      +0       0       0       0       0       0       0       0       0       0       0       0       0       0       0       
      +0       0       0       0       0       0
  1248 ;;Total ram usage:        2 bytes
  1249 ;; Hardware stack levels used: 1
  1250 ;; Hardware stack levels required when called: 3
  1251 ;; This function calls:
  1252 ;;		_I2C1_ERROR_ISR
  1253 ;;		_I2C1_ISR
  1254 ;;		_I2C1_RX_ISR
  1255 ;;		_I2C1_TX_ISR
  1256 ;;		_PIN_MANAGER_IOC
  1257 ;; This function is called by:
  1258 ;;		Interrupt level 2
  1259 ;; This function uses a non-reentrant model
  1260 ;;
  1261                           
  1262                           	psect	text11
  1263  0026CC                     __ptext11:
  1264                           	callstack 0
  1265  0026CC                     _INTERRUPT_InterruptManager:
  1266                           	callstack 120
  1267                           
  1268                           ; BSR set to: 0
  1269                           ;incstack = 0
  1270  0026CC  0061 F3E8  F51B    	movff	pclath,??_INTERRUPT_InterruptManager
  1271  0026D2  0061 F3EC  F51C    	movff	pclatu,??_INTERRUPT_InterruptManager+1
  1272  0026D8                     
  1273                           ;mcc_generated_files/system/src/interrupt.c: 83:     if(PIE0bits.IOCIE == 1 && PIR0bits.
      +                          IOCIF == 1)
  1274  0026D8  AE9E               	btfss	158,7,c	;volatile
  1275  0026DA  EF71  F013         	goto	i2u32_41
  1276  0026DE  EF73  F013         	goto	i2u32_40
  1277  0026E2                     i2u32_41:
  1278  0026E2  EF7C  F013         	goto	i2l1577
  1279  0026E6                     i2u32_40:
  1280  0026E6  AEAE               	btfss	174,7,c	;volatile
  1281  0026E8  EF78  F013         	goto	i2u33_41
  1282  0026EC  EF7A  F013         	goto	i2u33_40
  1283  0026F0                     i2u33_41:
  1284  0026F0  EF7C  F013         	goto	i2l1577
  1285  0026F4                     i2u33_40:
  1286  0026F4                     
  1287                           ;mcc_generated_files/system/src/interrupt.c: 84:     {;mcc_generated_files/system/src/in
      +                          terrupt.c: 85:         PIN_MANAGER_IOC();
  1288  0026F4  EC9D  F015         	call	_PIN_MANAGER_IOC	;wreg free
  1289  0026F8                     i2l1577:
  1290                           
  1291                           ;mcc_generated_files/system/src/interrupt.c: 88:     if(PIE7bits.I2C1EIE == 1 && PIR7bit
      +                          s.I2C1EIF == 1)
  1292  0026F8  A6A5               	btfss	165,3,c	;volatile
  1293  0026FA  EF81  F013         	goto	i2u34_41
  1294  0026FE  EF83  F013         	goto	i2u34_40
  1295  002702                     i2u34_41:
  1296  002702  EF8E  F013         	goto	i2l317
  1297  002706                     i2u34_40:
  1298  002706  A6B5               	btfss	181,3,c	;volatile
  1299  002708  EF88  F013         	goto	i2u35_41
  1300  00270C  EF8A  F013         	goto	i2u35_40
  1301  002710                     i2u35_41:
  1302  002710  EF8E  F013         	goto	i2l317
  1303  002714                     i2u35_40:
  1304  002714                     
  1305                           ;mcc_generated_files/system/src/interrupt.c: 89:     {;mcc_generated_files/system/src/in
      +                          terrupt.c: 90:         I2C1_ERROR_ISR();
  1306  002714  EC90  F012         	call	_I2C1_ERROR_ISR	;wreg free
  1307                           
  1308                           ;mcc_generated_files/system/src/interrupt.c: 91:     }
  1309  002718  EFC4  F013         	goto	i2l325
  1310  00271C                     i2l317:
  1311  00271C  A0A5               	btfss	165,0,c	;volatile
  1312  00271E  EF93  F013         	goto	i2u36_41
  1313  002722  EF95  F013         	goto	i2u36_40
  1314  002726                     i2u36_41:
  1315  002726  EFA0  F013         	goto	i2l319
  1316  00272A                     i2u36_40:
  1317  00272A  A0B5               	btfss	181,0,c	;volatile
  1318  00272C  EF9A  F013         	goto	i2u37_41
  1319  002730  EF9C  F013         	goto	i2u37_40
  1320  002734                     i2u37_41:
  1321  002734  EFA0  F013         	goto	i2l319
  1322  002738                     i2u37_40:
  1323  002738                     
  1324                           ;mcc_generated_files/system/src/interrupt.c: 93:     {;mcc_generated_files/system/src/in
      +                          terrupt.c: 94:         I2C1_RX_ISR();
  1325  002738  ECEF  F014         	call	_I2C1_RX_ISR	;wreg free
  1326                           
  1327                           ;mcc_generated_files/system/src/interrupt.c: 95:     }
  1328  00273C  EFC4  F013         	goto	i2l325
  1329  002740                     i2l319:
  1330  002740  A4A5               	btfss	165,2,c	;volatile
  1331  002742  EFA5  F013         	goto	i2u38_41
  1332  002746  EFA7  F013         	goto	i2u38_40
  1333  00274A                     i2u38_41:
  1334  00274A  EFB2  F013         	goto	i2l321
  1335  00274E                     i2u38_40:
  1336  00274E  A4B5               	btfss	181,2,c	;volatile
  1337  002750  EFAC  F013         	goto	i2u39_41
  1338  002754  EFAE  F013         	goto	i2u39_40
  1339  002758                     i2u39_41:
  1340  002758  EFB2  F013         	goto	i2l321
  1341  00275C                     i2u39_40:
  1342  00275C                     
  1343                           ;mcc_generated_files/system/src/interrupt.c: 97:     {;mcc_generated_files/system/src/in
      +                          terrupt.c: 98:         I2C1_ISR();
  1344  00275C  ECCB  F013         	call	_I2C1_ISR	;wreg free
  1345                           
  1346                           ;mcc_generated_files/system/src/interrupt.c: 99:     }
  1347  002760  EFC4  F013         	goto	i2l325
  1348  002764                     i2l321:
  1349  002764  A2A5               	btfss	165,1,c	;volatile
  1350  002766  EFB7  F013         	goto	i2u40_41
  1351  00276A  EFB9  F013         	goto	i2u40_40
  1352  00276E                     i2u40_41:
  1353  00276E  EFC4  F013         	goto	i2l320
  1354  002772                     i2u40_40:
  1355  002772  A2B5               	btfss	181,1,c	;volatile
  1356  002774  EFBE  F013         	goto	i2u41_41
  1357  002778  EFC0  F013         	goto	i2u41_40
  1358  00277C                     i2u41_41:
  1359  00277C  EFC4  F013         	goto	i2l320
  1360  002780                     i2u41_40:
  1361  002780                     
  1362                           ;mcc_generated_files/system/src/interrupt.c: 101:     {;mcc_generated_files/system/src/i
      +                          nterrupt.c: 102:         I2C1_TX_ISR();
  1363  002780  ECE3  F014         	call	_I2C1_TX_ISR	;wreg free
  1364                           
  1365                           ;mcc_generated_files/system/src/interrupt.c: 103:     }
  1366  002784  EFC4  F013         	goto	i2l325
  1367  002788                     i2l320:
  1368  002788                     i2l325:
  1369  002788  0061  F470  F4FB   	movff	??_INTERRUPT_InterruptManager+1,pclatu
  1370  00278E  0061  F46C  F4FA   	movff	??_INTERRUPT_InterruptManager,pclath
  1371  002794  0011               	retfie		f
  1372  002796                     __end_of_INTERRUPT_InterruptManager:
  1373                           	callstack 0
  1374                           
  1375 ;; *************** function _PIN_MANAGER_IOC *****************
  1376 ;; Defined at:
  1377 ;;		line 137 in file "mcc_generated_files/system/src/pins.c"
  1378 ;; Parameters:    Size  Location     Type
  1379 ;;		None
  1380 ;; Auto vars:     Size  Location     Type
  1381 ;;		None
  1382 ;; Return value:  Size  Location     Type
  1383 ;;                  1    wreg      void 
  1384 ;; Registers used:
  1385 ;;		None
  1386 ;; Tracked objects:
  1387 ;;		On entry : 0/0
  1388 ;;		On exit  : 0/0
  1389 ;;		Unchanged: 0/0
  1390 ;; Data sizes:     COMRAM   BANK5   BANK6   BANK7   BANK8   BANK9  BANK10  BANK11  BANK12  BANK13  BANK14  BANK15  BANK1
      +6  BANK17  BANK18  BANK19  BANK20  BANK21  BANK22  BANK23  BANK24  BANK25  BANK26  BANK27  BANK28  BANK29  BANK30  BANK3
      +1  BANK32  BANK33  BANK34  BANK35  BANK36
  1391 ;;      Params:         0       0       0       0       0       0       0       0       0       0       0       0       
      +0       0       0       0       0       0       0       0       0       0       0       0       0       0       0       
      +0       0       0       0       0       0
  1392 ;;      Locals:         0       0       0       0       0       0       0       0       0       0       0       0       
      +0       0       0       0       0       0       0       0       0       0       0       0       0       0       0       
      +0       0       0       0       0       0
  1393 ;;      Temps:          0       0       0       0       0       0       0       0       0       0       0       0       
      +0       0       0       0       0       0       0       0       0       0       0       0       0       0       0       
      +0       0       0       0       0       0
  1394 ;;      Totals:         0       0       0       0       0       0       0       0       0       0       0       0       
      +0       0       0       0       0       0       0       0       0       0       0       0       0       0       0       
      +0       0       0       0       0       0
  1395 ;;Total ram usage:        0 bytes
  1396 ;; Hardware stack levels used: 1
  1397 ;; This function calls:
  1398 ;;		Nothing
  1399 ;; This function is called by:
  1400 ;;		_INTERRUPT_InterruptManager
  1401 ;; This function uses a non-reentrant model
  1402 ;;
  1403                           
  1404                           	psect	text12
  1405  002B3A                     __ptext12:
  1406                           	callstack 0
  1407  002B3A                     _PIN_MANAGER_IOC:
  1408                           	callstack 122
  1409  002B3A  0012               	return		;funcret
  1410  002B3C                     __end_of_PIN_MANAGER_IOC:
  1411                           	callstack 0
  1412                           
  1413 ;; *************** function _I2C1_TX_ISR *****************
  1414 ;; Defined at:
  1415 ;;		line 292 in file "mcc_generated_files/i2c_host/src/i2c1.c"
  1416 ;; Parameters:    Size  Location     Type
  1417 ;;		None
  1418 ;; Auto vars:     Size  Location     Type
  1419 ;;		None
  1420 ;; Return value:  Size  Location     Type
  1421 ;;                  1    wreg      void 
  1422 ;; Registers used:
  1423 ;;		wreg, fsr2l, fsr2h, status,2, status,0, cstack
  1424 ;; Tracked objects:
  1425 ;;		On entry : 0/0
  1426 ;;		On exit  : 0/0
  1427 ;;		Unchanged: 0/0
  1428 ;; Data sizes:     COMRAM   BANK5   BANK6   BANK7   BANK8   BANK9  BANK10  BANK11  BANK12  BANK13  BANK14  BANK15  BANK1
      +6  BANK17  BANK18  BANK19  BANK20  BANK21  BANK22  BANK23  BANK24  BANK25  BANK26  BANK27  BANK28  BANK29  BANK30  BANK3
      +1  BANK32  BANK33  BANK34  BANK35  BANK36
  1429 ;;      Params:         0       0       0       0       0       0       0       0       0       0       0       0       
      +0       0       0       0       0       0       0       0       0       0       0       0       0       0       0       
      +0       0       0       0       0       0
  1430 ;;      Locals:         0       0       0       0       0       0       0       0       0       0       0       0       
      +0       0       0       0       0       0       0       0       0       0       0       0       0       0       0       
      +0       0       0       0       0       0
  1431 ;;      Temps:          0       0       0       0       0       0       0       0       0       0       0       0       
      +0       0       0       0       0       0       0       0       0       0       0       0       0       0       0       
      +0       0       0       0       0       0
  1432 ;;      Totals:         0       0       0       0       0       0       0       0       0       0       0       0       
      +0       0       0       0       0       0       0       0       0       0       0       0       0       0       0       
      +0       0       0       0       0       0
  1433 ;;Total ram usage:        0 bytes
  1434 ;; Hardware stack levels used: 1
  1435 ;; Hardware stack levels required when called: 1
  1436 ;; This function calls:
  1437 ;;		_I2C1_DataTransmit
  1438 ;; This function is called by:
  1439 ;;		_INTERRUPT_InterruptManager
  1440 ;; This function uses a non-reentrant model
  1441 ;;
  1442                           
  1443                           	psect	text13
  1444  0029C6                     __ptext13:
  1445                           	callstack 0
  1446  0029C6                     _I2C1_TX_ISR:
  1447                           	callstack 121
  1448  0029C6                     
  1449                           ;mcc_generated_files/i2c_host/src/i2c1.c: 294:     I2C1_DataTransmit(*i2c1Status.writePt
      +                          r++);
  1450  0029C6  0061  F410  F4D9   	movff	_i2c1Status+3,fsr2l	;volatile
  1451  0029CC  0061  F414  F4DA   	movff	_i2c1Status+4,fsr2h	;volatile
  1452  0029D2  4A04               	infsnz	(_i2c1Status+3)^(0+1280),f,c	;volatile
  1453  0029D4  2A05               	incf	(_i2c1Status+4)^(0+1280),f,c	;volatile
  1454  0029D6  50DF               	movf	indf2,w,c
  1455  0029D8  EC79  F015         	call	_I2C1_DataTransmit
  1456  0029DC  0012               	return		;funcret
  1457  0029DE                     __end_of_I2C1_TX_ISR:
  1458                           	callstack 0
  1459                           
  1460 ;; *************** function _I2C1_RX_ISR *****************
  1461 ;; Defined at:
  1462 ;;		line 287 in file "mcc_generated_files/i2c_host/src/i2c1.c"
  1463 ;; Parameters:    Size  Location     Type
  1464 ;;		None
  1465 ;; Auto vars:     Size  Location     Type
  1466 ;;		None
  1467 ;; Return value:  Size  Location     Type
  1468 ;;                  1    wreg      void 
  1469 ;; Registers used:
  1470 ;;		wreg, fsr2l, fsr2h, status,2, status,0, cstack
  1471 ;; Tracked objects:
  1472 ;;		On entry : 0/0
  1473 ;;		On exit  : 0/0
  1474 ;;		Unchanged: 0/0
  1475 ;; Data sizes:     COMRAM   BANK5   BANK6   BANK7   BANK8   BANK9  BANK10  BANK11  BANK12  BANK13  BANK14  BANK15  BANK1
      +6  BANK17  BANK18  BANK19  BANK20  BANK21  BANK22  BANK23  BANK24  BANK25  BANK26  BANK27  BANK28  BANK29  BANK30  BANK3
      +1  BANK32  BANK33  BANK34  BANK35  BANK36
  1476 ;;      Params:         0       0       0       0       0       0       0       0       0       0       0       0       
      +0       0       0       0       0       0       0       0       0       0       0       0       0       0       0       
      +0       0       0       0       0       0
  1477 ;;      Locals:         0       0       0       0       0       0       0       0       0       0       0       0       
      +0       0       0       0       0       0       0       0       0       0       0       0       0       0       0       
      +0       0       0       0       0       0
  1478 ;;      Temps:          0       0       0       0       0       0       0       0       0       0       0       0       
      +0       0       0       0       0       0       0       0       0       0       0       0       0       0       0       
      +0       0       0       0       0       0
  1479 ;;      Totals:         0       0       0       0       0       0       0       0       0       0       0       0       
      +0       0       0       0       0       0       0       0       0       0       0       0       0       0       0       
      +0       0       0       0       0       0
  1480 ;;Total ram usage:        0 bytes
  1481 ;; Hardware stack levels used: 1
  1482 ;; Hardware stack levels required when called: 1
  1483 ;; This function calls:
  1484 ;;		_I2C1_DataReceive
  1485 ;; This function is called by:
  1486 ;;		_INTERRUPT_InterruptManager
  1487 ;; This function uses a non-reentrant model
  1488 ;;
  1489                           
  1490                           	psect	text14
  1491  0029DE                     __ptext14:
  1492                           	callstack 0
  1493  0029DE                     _I2C1_RX_ISR:
  1494                           	callstack 121
  1495  0029DE                     
  1496                           ;mcc_generated_files/i2c_host/src/i2c1.c: 289:     *i2c1Status.readPtr++ = I2C1_DataRece
      +                          ive();
  1497  0029DE  EC91  F015         	call	_I2C1_DataReceive	;wreg free
  1498  0029E2  0061  F420  F4D9   	movff	_i2c1Status+7,fsr2l	;volatile
  1499  0029E8  0061  F424  F4DA   	movff	_i2c1Status+8,fsr2h	;volatile
  1500  0029EE  6EDF               	movwf	indf2,c
  1501  0029F0  4A08               	infsnz	(_i2c1Status+7)^(0+1280),f,c	;volatile
  1502  0029F2  2A09               	incf	(_i2c1Status+8)^(0+1280),f,c	;volatile
  1503  0029F4  0012               	return		;funcret
  1504  0029F6                     __end_of_I2C1_RX_ISR:
  1505                           	callstack 0
  1506                           
  1507 ;; *************** function _I2C1_DataReceive *****************
  1508 ;; Defined at:
  1509 ;;		line 360 in file "mcc_generated_files/i2c_host/src/i2c1.c"
  1510 ;; Parameters:    Size  Location     Type
  1511 ;;		None
  1512 ;; Auto vars:     Size  Location     Type
  1513 ;;		None
  1514 ;; Return value:  Size  Location     Type
  1515 ;;                  1    wreg      unsigned char 
  1516 ;; Registers used:
  1517 ;;		wreg, status,2
  1518 ;; Tracked objects:
  1519 ;;		On entry : 0/0
  1520 ;;		On exit  : 0/0
  1521 ;;		Unchanged: 0/0
  1522 ;; Data sizes:     COMRAM   BANK5   BANK6   BANK7   BANK8   BANK9  BANK10  BANK11  BANK12  BANK13  BANK14  BANK15  BANK1
      +6  BANK17  BANK18  BANK19  BANK20  BANK21  BANK22  BANK23  BANK24  BANK25  BANK26  BANK27  BANK28  BANK29  BANK30  BANK3
      +1  BANK32  BANK33  BANK34  BANK35  BANK36
  1523 ;;      Params:         0       0       0       0       0       0       0       0       0       0       0       0       
      +0       0       0       0       0       0       0       0       0       0       0       0       0       0       0       
      +0       0       0       0       0       0
  1524 ;;      Locals:         0       0       0       0       0       0       0       0       0       0       0       0       
      +0       0       0       0       0       0       0       0       0       0       0       0       0       0       0       
      +0       0       0       0       0       0
  1525 ;;      Temps:          0       0       0       0       0       0       0       0       0       0       0       0       
      +0       0       0       0       0       0       0       0       0       0       0       0       0       0       0       
      +0       0       0       0       0       0
  1526 ;;      Totals:         0       0       0       0       0       0       0       0       0       0       0       0       
      +0       0       0       0       0       0       0       0       0       0       0       0       0       0       0       
      +0       0       0       0       0       0
  1527 ;;Total ram usage:        0 bytes
  1528 ;; Hardware stack levels used: 1
  1529 ;; This function calls:
  1530 ;;		Nothing
  1531 ;; This function is called by:
  1532 ;;		_I2C1_RX_ISR
  1533 ;; This function uses a non-reentrant model
  1534 ;;
  1535                           
  1536                           	psect	text15
  1537  002B22                     __ptext15:
  1538                           	callstack 0
  1539  002B22                     _I2C1_DataReceive:
  1540                           	callstack 121
  1541  002B22                     
  1542                           ;mcc_generated_files/i2c_host/src/i2c1.c: 362:     return I2C1RXB;
  1543  002B22  0102               	movlb	2	; () banked
  1544  002B24  518B               	movf	139,w,b	;volatile
  1545  002B26                     
  1546                           ; BSR set to: 2
  1547  002B26  0012               	return		;funcret
  1548  002B28                     __end_of_I2C1_DataReceive:
  1549                           	callstack 0
  1550                           
  1551 ;; *************** function _I2C1_ISR *****************
  1552 ;; Defined at:
  1553 ;;		line 222 in file "mcc_generated_files/i2c_host/src/i2c1.c"
  1554 ;; Parameters:    Size  Location     Type
  1555 ;;		None
  1556 ;; Auto vars:     Size  Location     Type
  1557 ;;		None
  1558 ;; Return value:  Size  Location     Type
  1559 ;;                  1    wreg      void 
  1560 ;; Registers used:
  1561 ;;		wreg, status,2, status,0, cstack
  1562 ;; Tracked objects:
  1563 ;;		On entry : 0/0
  1564 ;;		On exit  : 0/0
  1565 ;;		Unchanged: 0/0
  1566 ;; Data sizes:     COMRAM   BANK5   BANK6   BANK7   BANK8   BANK9  BANK10  BANK11  BANK12  BANK13  BANK14  BANK15  BANK1
      +6  BANK17  BANK18  BANK19  BANK20  BANK21  BANK22  BANK23  BANK24  BANK25  BANK26  BANK27  BANK28  BANK29  BANK30  BANK3
      +1  BANK32  BANK33  BANK34  BANK35  BANK36
  1567 ;;      Params:         0       0       0       0       0       0       0       0       0       0       0       0       
      +0       0       0       0       0       0       0       0       0       0       0       0       0       0       0       
      +0       0       0       0       0       0
  1568 ;;      Locals:         0       0       0       0       0       0       0       0       0       0       0       0       
      +0       0       0       0       0       0       0       0       0       0       0       0       0       0       0       
      +0       0       0       0       0       0
  1569 ;;      Temps:          0       0       0       0       0       0       0       0       0       0       0       0       
      +0       0       0       0       0       0       0       0       0       0       0       0       0       0       0       
      +0       0       0       0       0       0
  1570 ;;      Totals:         0       0       0       0       0       0       0       0       0       0       0       0       
      +0       0       0       0       0       0       0       0       0       0       0       0       0       0       0       
      +0       0       0       0       0       0
  1571 ;;Total ram usage:        0 bytes
  1572 ;; Hardware stack levels used: 1
  1573 ;; Hardware stack levels required when called: 2
  1574 ;; This function calls:
  1575 ;;		_I2C1_Close
  1576 ;;		_I2C1_ReadStart
  1577 ;;		_I2C1_RestartDisable
  1578 ;;		_I2C1_StopSend
  1579 ;; This function is called by:
  1580 ;;		_INTERRUPT_InterruptManager
  1581 ;; This function uses a non-reentrant model
  1582 ;;
  1583                           
  1584                           	psect	text16
  1585  002796                     __ptext16:
  1586                           	callstack 0
  1587  002796                     _I2C1_ISR:
  1588                           	callstack 120
  1589  002796                     
  1590                           ;mcc_generated_files/i2c_host/src/i2c1.c: 224:     if (I2C1PIEbits.PCIE && I2C1PIRbits.P
      +                          CIF)
  1591  002796  0102               	movlb	2	; () banked
  1592  002798  A59B               	btfss	155,2,b	;volatile
  1593  00279A  EFD1  F013         	goto	i2u15_41
  1594  00279E  EFD3  F013         	goto	i2u15_40
  1595  0027A2                     i2u15_41:
  1596  0027A2  EFDE  F013         	goto	i2l157
  1597  0027A6                     i2u15_40:
  1598  0027A6                     
  1599                           ; BSR set to: 2
  1600  0027A6  A59A               	btfss	154,2,b	;volatile
  1601  0027A8  EFD8  F013         	goto	i2u16_41
  1602  0027AC  EFDA  F013         	goto	i2u16_40
  1603  0027B0                     i2u16_41:
  1604  0027B0  EFDE  F013         	goto	i2l157
  1605  0027B4                     i2u16_40:
  1606  0027B4                     i2l1447:
  1607                           
  1608                           ;mcc_generated_files/i2c_host/src/i2c1.c: 225:     {;mcc_generated_files/i2c_host/src/i2
      +                          c1.c: 226:         I2C1_Close();
  1609  0027B4  EC7A  F014         	call	_I2C1_Close	;wreg free
  1610                           
  1611                           ;mcc_generated_files/i2c_host/src/i2c1.c: 227:     }
  1612  0027B8  EF12  F014         	goto	i2l164
  1613  0027BC                     i2l157:
  1614                           
  1615                           ; BSR set to: 2
  1616  0027BC  AF9B               	btfss	155,7,b	;volatile
  1617  0027BE  EFE3  F013         	goto	i2u17_41
  1618  0027C2  EFE5  F013         	goto	i2u17_40
  1619  0027C6                     i2u17_41:
  1620  0027C6  EF00  F014         	goto	i2l159
  1621  0027CA                     i2u17_40:
  1622  0027CA                     
  1623                           ; BSR set to: 2
  1624  0027CA  AF9A               	btfss	154,7,b	;volatile
  1625  0027CC  EFEA  F013         	goto	i2u18_41
  1626  0027D0  EFEC  F013         	goto	i2u18_40
  1627  0027D4                     i2u18_41:
  1628  0027D4  EF00  F014         	goto	i2l159
  1629  0027D8                     i2u18_40:
  1630  0027D8                     
  1631                           ; BSR set to: 2
  1632                           ;mcc_generated_files/i2c_host/src/i2c1.c: 229:     {;mcc_generated_files/i2c_host/src/i2
      +                          c1.c: 231:         if (i2c1Status.switchToRead)
  1633  0027D8  500C               	movf	(_i2c1Status+11)^(0+1280),w,c	;volatile
  1634  0027DA  B4D8               	btfsc	status,2,c
  1635  0027DC  EFF2  F013         	goto	i2u19_41
  1636  0027E0  EFF4  F013         	goto	i2u19_40
  1637  0027E4                     i2u19_41:
  1638  0027E4  EFFC  F013         	goto	i2l1461
  1639  0027E8                     i2u19_40:
  1640  0027E8                     
  1641                           ; BSR set to: 2
  1642                           ;mcc_generated_files/i2c_host/src/i2c1.c: 232:         {;mcc_generated_files/i2c_host/sr
      +                          c/i2c1.c: 233:             i2c1Status.switchToRead = 0;
  1643  0027E8  0E00               	movlw	0
  1644  0027EA  6E0C               	movwf	(_i2c1Status+11)^(0+1280),c	;volatile
  1645  0027EC                     
  1646                           ; BSR set to: 2
  1647                           ;mcc_generated_files/i2c_host/src/i2c1.c: 234:             I2C1PIRbits.SCIF = 0;
  1648  0027EC  919A               	bcf	154,0,b	;volatile
  1649  0027EE                     
  1650                           ; BSR set to: 2
  1651                           ;mcc_generated_files/i2c_host/src/i2c1.c: 235:             I2C1PIRbits.CNTIF = 0;
  1652  0027EE  9F9A               	bcf	154,7,b	;volatile
  1653  0027F0                     
  1654                           ; BSR set to: 2
  1655                           ;mcc_generated_files/i2c_host/src/i2c1.c: 236:             I2C1_ReadStart();
  1656  0027F0  EC8E  F014         	call	_I2C1_ReadStart	;wreg free
  1657                           
  1658                           ;mcc_generated_files/i2c_host/src/i2c1.c: 237:         }
  1659  0027F4  EF12  F014         	goto	i2l164
  1660  0027F8                     i2l1461:
  1661                           
  1662                           ; BSR set to: 2
  1663                           ;mcc_generated_files/i2c_host/src/i2c1.c: 239:         {;mcc_generated_files/i2c_host/sr
      +                          c/i2c1.c: 240:             I2C1_StopSend();
  1664  0027F8  ECA1  F014         	call	_I2C1_StopSend	;wreg free
  1665  0027FC  EFDA  F013         	goto	i2l1447
  1666  002800                     i2l159:
  1667                           
  1668                           ; BSR set to: 2
  1669  002800  A39B               	btfss	155,1,b	;volatile
  1670  002802  EF05  F014         	goto	i2u20_41
  1671  002806  EF07  F014         	goto	i2u20_40
  1672  00280A                     i2u20_41:
  1673  00280A  EF12  F014         	goto	i2l164
  1674  00280E                     i2u20_40:
  1675  00280E                     
  1676                           ; BSR set to: 2
  1677  00280E  A39A               	btfss	154,1,b	;volatile
  1678  002810  EF0C  F014         	goto	i2u21_41
  1679  002814  EF0E  F014         	goto	i2u21_40
  1680  002818                     i2u21_41:
  1681  002818  EF12  F014         	goto	i2l164
  1682  00281C                     i2u21_40:
  1683  00281C                     
  1684                           ; BSR set to: 2
  1685                           ;mcc_generated_files/i2c_host/src/i2c1.c: 245:     {;mcc_generated_files/i2c_host/src/i2
      +                          c1.c: 246:         I2C1_RestartDisable();
  1686  00281C  EC97  F015         	call	_I2C1_RestartDisable	;wreg free
  1687  002820                     
  1688                           ;mcc_generated_files/i2c_host/src/i2c1.c: 247:         I2C1PIRbits.RSCIF = 0;
  1689  002820  0102               	movlb	2	; () banked
  1690  002822  939A               	bcf	154,1,b	;volatile
  1691  002824                     i2l164:
  1692  002824  0012               	return		;funcret
  1693  002826                     __end_of_I2C1_ISR:
  1694                           	callstack 0
  1695                           
  1696 ;; *************** function _I2C1_ReadStart *****************
  1697 ;; Defined at:
  1698 ;;		line 300 in file "mcc_generated_files/i2c_host/src/i2c1.c"
  1699 ;; Parameters:    Size  Location     Type
  1700 ;;		None
  1701 ;; Auto vars:     Size  Location     Type
  1702 ;;		None
  1703 ;; Return value:  Size  Location     Type
  1704 ;;                  1    wreg      void 
  1705 ;; Registers used:
  1706 ;;		wreg, status,2, status,0, cstack
  1707 ;; Tracked objects:
  1708 ;;		On entry : 0/0
  1709 ;;		On exit  : 0/0
  1710 ;;		Unchanged: 0/0
  1711 ;; Data sizes:     COMRAM   BANK5   BANK6   BANK7   BANK8   BANK9  BANK10  BANK11  BANK12  BANK13  BANK14  BANK15  BANK1
      +6  BANK17  BANK18  BANK19  BANK20  BANK21  BANK22  BANK23  BANK24  BANK25  BANK26  BANK27  BANK28  BANK29  BANK30  BANK3
      +1  BANK32  BANK33  BANK34  BANK35  BANK36
  1712 ;;      Params:         0       0       0       0       0       0       0       0       0       0       0       0       
      +0       0       0       0       0       0       0       0       0       0       0       0       0       0       0       
      +0       0       0       0       0       0
  1713 ;;      Locals:         0       0       0       0       0       0       0       0       0       0       0       0       
      +0       0       0       0       0       0       0       0       0       0       0       0       0       0       0       
      +0       0       0       0       0       0
  1714 ;;      Temps:          0       0       0       0       0       0       0       0       0       0       0       0       
      +0       0       0       0       0       0       0       0       0       0       0       0       0       0       0       
      +0       0       0       0       0       0
  1715 ;;      Totals:         0       0       0       0       0       0       0       0       0       0       0       0       
      +0       0       0       0       0       0       0       0       0       0       0       0       0       0       0       
      +0       0       0       0       0       0
  1716 ;;Total ram usage:        0 bytes
  1717 ;; Hardware stack levels used: 1
  1718 ;; Hardware stack levels required when called: 1
  1719 ;; This function calls:
  1720 ;;		_I2C1_AddrTransmit
  1721 ;;		_I2C1_CounterSet
  1722 ;;		_I2C1_StartSend
  1723 ;; This function is called by:
  1724 ;;		_I2C1_ISR
  1725 ;;		_I2C1_Read
  1726 ;; This function uses a non-reentrant model
  1727 ;;
  1728                           
  1729                           	psect	text17
  1730  00291C                     __ptext17:
  1731                           	callstack 0
  1732  00291C                     _I2C1_ReadStart:
  1733                           	callstack 120
  1734  00291C                     
  1735                           ;mcc_generated_files/i2c_host/src/i2c1.c: 302:     if (i2c1Status.readLength)
  1736  00291C  500A               	movf	(_i2c1Status+9)^(0+1280),w,c	;volatile
  1737  00291E  100B               	iorwf	(_i2c1Status+10)^(0+1280),w,c	;volatile
  1738  002920  B4D8               	btfsc	status,2,c
  1739  002922  EF95  F014         	goto	i2u6_41
  1740  002926  EF97  F014         	goto	i2u6_40
  1741  00292A                     i2u6_41:
  1742  00292A  EF9A  F014         	goto	i2l1289
  1743  00292E                     i2u6_40:
  1744  00292E                     
  1745                           ;mcc_generated_files/i2c_host/src/i2c1.c: 303:     {;mcc_generated_files/i2c_host/src/i2
      +                          c1.c: 304:         I2C1_CounterSet((uint8_t) i2c1Status.readLength);
  1746  00292E  500A               	movf	(_i2c1Status+9)^(0+1280),w,c	;volatile
  1747  002930  EC7E  F015         	call	_I2C1_CounterSet
  1748  002934                     i2l1289:
  1749                           
  1750                           ;mcc_generated_files/i2c_host/src/i2c1.c: 307:     I2C1_AddrTransmit((uint8_t) (i2c1Stat
      +                          us.address << 1 | 1));
  1751  002934  80D8               	bsf	status,0,c
  1752  002936  3402               	rlcf	(_i2c1Status+1)^(0+1280),w,c	;volatile
  1753  002938  EC74  F015         	call	_I2C1_AddrTransmit
  1754  00293C                     
  1755                           ;mcc_generated_files/i2c_host/src/i2c1.c: 308:     I2C1_StartSend();
  1756  00293C  EC94  F015         	call	_I2C1_StartSend	;wreg free
  1757  002940  0012               	return		;funcret
  1758  002942                     __end_of_I2C1_ReadStart:
  1759                           	callstack 0
  1760                           
  1761 ;; *************** function _I2C1_StartSend *****************
  1762 ;; Defined at:
  1763 ;;		line 345 in file "mcc_generated_files/i2c_host/src/i2c1.c"
  1764 ;; Parameters:    Size  Location     Type
  1765 ;;		None
  1766 ;; Auto vars:     Size  Location     Type
  1767 ;;		None
  1768 ;; Return value:  Size  Location     Type
  1769 ;;                  1    wreg      void 
  1770 ;; Registers used:
  1771 ;;		None
  1772 ;; Tracked objects:
  1773 ;;		On entry : 0/0
  1774 ;;		On exit  : 0/0
  1775 ;;		Unchanged: 0/0
  1776 ;; Data sizes:     COMRAM   BANK5   BANK6   BANK7   BANK8   BANK9  BANK10  BANK11  BANK12  BANK13  BANK14  BANK15  BANK1
      +6  BANK17  BANK18  BANK19  BANK20  BANK21  BANK22  BANK23  BANK24  BANK25  BANK26  BANK27  BANK28  BANK29  BANK30  BANK3
      +1  BANK32  BANK33  BANK34  BANK35  BANK36
  1777 ;;      Params:         0       0       0       0       0       0       0       0       0       0       0       0       
      +0       0       0       0       0       0       0       0       0       0       0       0       0       0       0       
      +0       0       0       0       0       0
  1778 ;;      Locals:         0       0       0       0       0       0       0       0       0       0       0       0       
      +0       0       0       0       0       0       0       0       0       0       0       0       0       0       0       
      +0       0       0       0       0       0
  1779 ;;      Temps:          0       0       0       0       0       0       0       0       0       0       0       0       
      +0       0       0       0       0       0       0       0       0       0       0       0       0       0       0       
      +0       0       0       0       0       0
  1780 ;;      Totals:         0       0       0       0       0       0       0       0       0       0       0       0       
      +0       0       0       0       0       0       0       0       0       0       0       0       0       0       0       
      +0       0       0       0       0       0
  1781 ;;Total ram usage:        0 bytes
  1782 ;; Hardware stack levels used: 1
  1783 ;; This function calls:
  1784 ;;		Nothing
  1785 ;; This function is called by:
  1786 ;;		_I2C1_ReadStart
  1787 ;;		_I2C1_WriteStart
  1788 ;; This function uses a non-reentrant model
  1789 ;;
  1790                           
  1791                           	psect	text18
  1792  002B28                     __ptext18:
  1793                           	callstack 0
  1794  002B28                     _I2C1_StartSend:
  1795                           	callstack 120
  1796  002B28                     
  1797                           ;mcc_generated_files/i2c_host/src/i2c1.c: 347:     I2C1CON0bits.S = 1;
  1798  002B28  0102               	movlb	2	; () banked
  1799  002B2A  8B94               	bsf	148,5,b	;volatile
  1800  002B2C                     
  1801                           ; BSR set to: 2
  1802  002B2C  0012               	return		;funcret
  1803  002B2E                     __end_of_I2C1_StartSend:
  1804                           	callstack 0
  1805                           
  1806 ;; *************** function _I2C1_AddrTransmit *****************
  1807 ;; Defined at:
  1808 ;;		line 350 in file "mcc_generated_files/i2c_host/src/i2c1.c"
  1809 ;; Parameters:    Size  Location     Type
  1810 ;;  addr            1    wreg     unsigned char 
  1811 ;; Auto vars:     Size  Location     Type
  1812 ;;  addr            1    0[COMRAM] unsigned char 
  1813 ;; Return value:  Size  Location     Type
  1814 ;;                  1    wreg      void 
  1815 ;; Registers used:
  1816 ;;		wreg
  1817 ;; Tracked objects:
  1818 ;;		On entry : 0/0
  1819 ;;		On exit  : 0/0
  1820 ;;		Unchanged: 0/0
  1821 ;; Data sizes:     COMRAM   BANK5   BANK6   BANK7   BANK8   BANK9  BANK10  BANK11  BANK12  BANK13  BANK14  BANK15  BANK1
      +6  BANK17  BANK18  BANK19  BANK20  BANK21  BANK22  BANK23  BANK24  BANK25  BANK26  BANK27  BANK28  BANK29  BANK30  BANK3
      +1  BANK32  BANK33  BANK34  BANK35  BANK36
  1822 ;;      Params:         0       0       0       0       0       0       0       0       0       0       0       0       
      +0       0       0       0       0       0       0       0       0       0       0       0       0       0       0       
      +0       0       0       0       0       0
  1823 ;;      Locals:         1       0       0       0       0       0       0       0       0       0       0       0       
      +0       0       0       0       0       0       0       0       0       0       0       0       0       0       0       
      +0       0       0       0       0       0
  1824 ;;      Temps:          0       0       0       0       0       0       0       0       0       0       0       0       
      +0       0       0       0       0       0       0       0       0       0       0       0       0       0       0       
      +0       0       0       0       0       0
  1825 ;;      Totals:         1       0       0       0       0       0       0       0       0       0       0       0       
      +0       0       0       0       0       0       0       0       0       0       0       0       0       0       0       
      +0       0       0       0       0       0
  1826 ;;Total ram usage:        1 bytes
  1827 ;; Hardware stack levels used: 1
  1828 ;; This function calls:
  1829 ;;		Nothing
  1830 ;; This function is called by:
  1831 ;;		_I2C1_ReadStart
  1832 ;;		_I2C1_WriteStart
  1833 ;; This function uses a non-reentrant model
  1834 ;;
  1835                           
  1836                           	psect	text19
  1837  002AE8                     __ptext19:
  1838                           	callstack 0
  1839  002AE8                     _I2C1_AddrTransmit:
  1840                           	callstack 120
  1841                           
  1842                           ; BSR set to: 2
  1843                           ;incstack = 0
  1844                           ;I2C1_AddrTransmit@addr stored from wreg
  1845  002AE8  6E1A               	movwf	I2C1_AddrTransmit@addr^(0+1280),c
  1846  002AEA                     
  1847                           ;mcc_generated_files/i2c_host/src/i2c1.c: 350: static void I2C1_AddrTransmit(uint8_t add
      +                          r);mcc_generated_files/i2c_host/src/i2c1.c: 351: {;mcc_generated_files/i2c_host/src/i2c1
      +                          .c: 352:     I2C1ADB1 = addr;
  1848  002AEA  0061  F468  F28F   	movff	I2C1_AddrTransmit@addr,655	;volatile
  1849  002AF0  0012               	return		;funcret
  1850  002AF2                     __end_of_I2C1_AddrTransmit:
  1851                           	callstack 0
  1852                           
  1853 ;; *************** function _I2C1_Close *****************
  1854 ;; Defined at:
  1855 ;;		line 326 in file "mcc_generated_files/i2c_host/src/i2c1.c"
  1856 ;; Parameters:    Size  Location     Type
  1857 ;;		None
  1858 ;; Auto vars:     Size  Location     Type
  1859 ;;		None
  1860 ;; Return value:  Size  Location     Type
  1861 ;;                  1    wreg      void 
  1862 ;; Registers used:
  1863 ;;		wreg, status,2, status,0, cstack
  1864 ;; Tracked objects:
  1865 ;;		On entry : 0/0
  1866 ;;		On exit  : 0/0
  1867 ;;		Unchanged: 0/0
  1868 ;; Data sizes:     COMRAM   BANK5   BANK6   BANK7   BANK8   BANK9  BANK10  BANK11  BANK12  BANK13  BANK14  BANK15  BANK1
      +6  BANK17  BANK18  BANK19  BANK20  BANK21  BANK22  BANK23  BANK24  BANK25  BANK26  BANK27  BANK28  BANK29  BANK30  BANK3
      +1  BANK32  BANK33  BANK34  BANK35  BANK36
  1869 ;;      Params:         0       0       0       0       0       0       0       0       0       0       0       0       
      +0       0       0       0       0       0       0       0       0       0       0       0       0       0       0       
      +0       0       0       0       0       0
  1870 ;;      Locals:         0       0       0       0       0       0       0       0       0       0       0       0       
      +0       0       0       0       0       0       0       0       0       0       0       0       0       0       0       
      +0       0       0       0       0       0
  1871 ;;      Temps:          0       0       0       0       0       0       0       0       0       0       0       0       
      +0       0       0       0       0       0       0       0       0       0       0       0       0       0       0       
      +0       0       0       0       0       0
  1872 ;;      Totals:         0       0       0       0       0       0       0       0       0       0       0       0       
      +0       0       0       0       0       0       0       0       0       0       0       0       0       0       0       
      +0       0       0       0       0       0
  1873 ;;Total ram usage:        0 bytes
  1874 ;; Hardware stack levels used: 1
  1875 ;; Hardware stack levels required when called: 1
  1876 ;; This function calls:
  1877 ;;		_I2C1_BufferClear
  1878 ;;		_I2C1_ErrorFlagsClear
  1879 ;;		_I2C1_InterruptsClear
  1880 ;; This function is called by:
  1881 ;;		_I2C1_ISR
  1882 ;; This function uses a non-reentrant model
  1883 ;;
  1884                           
  1885                           	psect	text20
  1886  0028F4                     __ptext20:
  1887                           	callstack 0
  1888  0028F4                     _I2C1_Close:
  1889                           	callstack 120
  1890  0028F4                     
  1891                           ;mcc_generated_files/i2c_host/src/i2c1.c: 328:     i2c1Status.busy = 0;
  1892  0028F4  0E00               	movlw	0
  1893  0028F6  6E01               	movwf	_i2c1Status^(0+1280),c	;volatile
  1894                           
  1895                           ;mcc_generated_files/i2c_host/src/i2c1.c: 329:     i2c1Status.address = 0xFF;
  1896  0028F8  0E00               	movlw	0
  1897  0028FA  6E03               	movwf	(_i2c1Status+2)^(0+1280),c	;volatile
  1898  0028FC  6802               	setf	(_i2c1Status+1)^(0+1280),c	;volatile
  1899  0028FE                     
  1900                           ;mcc_generated_files/i2c_host/src/i2c1.c: 330:     i2c1Status.writePtr = ((void*)0);
  1901  0028FE  0E00               	movlw	0
  1902  002900  6E04               	movwf	(_i2c1Status+3)^(0+1280),c	;volatile
  1903  002902  0E00               	movlw	0
  1904  002904  6E05               	movwf	(_i2c1Status+4)^(0+1280),c	;volatile
  1905  002906                     
  1906                           ;mcc_generated_files/i2c_host/src/i2c1.c: 331:     i2c1Status.readPtr = ((void*)0);
  1907  002906  0E00               	movlw	0
  1908  002908  6E08               	movwf	(_i2c1Status+7)^(0+1280),c	;volatile
  1909  00290A  0E00               	movlw	0
  1910  00290C  6E09               	movwf	(_i2c1Status+8)^(0+1280),c	;volatile
  1911  00290E                     
  1912                           ;mcc_generated_files/i2c_host/src/i2c1.c: 332:     I2C1_InterruptsClear();
  1913  00290E  EC8D  F015         	call	_I2C1_InterruptsClear	;wreg free
  1914                           
  1915                           ;mcc_generated_files/i2c_host/src/i2c1.c: 333:     I2C1_ErrorFlagsClear();
  1916  002912  EC83  F015         	call	_I2C1_ErrorFlagsClear	;wreg free
  1917  002916                     
  1918                           ;mcc_generated_files/i2c_host/src/i2c1.c: 334:     I2C1_BufferClear();
  1919  002916  EC88  F015         	call	_I2C1_BufferClear	;wreg free
  1920  00291A  0012               	return		;funcret
  1921  00291C                     __end_of_I2C1_Close:
  1922                           	callstack 0
  1923                           
  1924 ;; *************** function _I2C1_ERROR_ISR *****************
  1925 ;; Defined at:
  1926 ;;		line 251 in file "mcc_generated_files/i2c_host/src/i2c1.c"
  1927 ;; Parameters:    Size  Location     Type
  1928 ;;		None
  1929 ;; Auto vars:     Size  Location     Type
  1930 ;;		None
  1931 ;; Return value:  Size  Location     Type
  1932 ;;                  1    wreg      void 
  1933 ;; Registers used:
  1934 ;;		wreg, status,2, pcl, pclath, pclatu, tosl, cstack
  1935 ;; Tracked objects:
  1936 ;;		On entry : 0/0
  1937 ;;		On exit  : 0/0
  1938 ;;		Unchanged: 0/0
  1939 ;; Data sizes:     COMRAM   BANK5   BANK6   BANK7   BANK8   BANK9  BANK10  BANK11  BANK12  BANK13  BANK14  BANK15  BANK1
      +6  BANK17  BANK18  BANK19  BANK20  BANK21  BANK22  BANK23  BANK24  BANK25  BANK26  BANK27  BANK28  BANK29  BANK30  BANK3
      +1  BANK32  BANK33  BANK34  BANK35  BANK36
  1940 ;;      Params:         0       0       0       0       0       0       0       0       0       0       0       0       
      +0       0       0       0       0       0       0       0       0       0       0       0       0       0       0       
      +0       0       0       0       0       0
  1941 ;;      Locals:         0       0       0       0       0       0       0       0       0       0       0       0       
      +0       0       0       0       0       0       0       0       0       0       0       0       0       0       0       
      +0       0       0       0       0       0
  1942 ;;      Temps:          0       0       0       0       0       0       0       0       0       0       0       0       
      +0       0       0       0       0       0       0       0       0       0       0       0       0       0       0       
      +0       0       0       0       0       0
  1943 ;;      Totals:         0       0       0       0       0       0       0       0       0       0       0       0       
      +0       0       0       0       0       0       0       0       0       0       0       0       0       0       0       
      +0       0       0       0       0       0
  1944 ;;Total ram usage:        0 bytes
  1945 ;; Hardware stack levels used: 1
  1946 ;; Hardware stack levels required when called: 2
  1947 ;; This function calls:
  1948 ;;		Absolute function
  1949 ;;		_I2C1_BusReset
  1950 ;;		_I2C1_DefaultCallback
  1951 ;;		_I2C1_IsAddr
  1952 ;;		_I2C1_IsBusCol
  1953 ;;		_I2C1_IsBusTimeOut
  1954 ;;		_I2C1_IsData
  1955 ;;		_I2C1_IsNack
  1956 ;;		_I2C1_StopSend
  1957 ;; This function is called by:
  1958 ;;		_INTERRUPT_InterruptManager
  1959 ;; This function uses a non-reentrant model
  1960 ;;
  1961                           
  1962                           	psect	text21
  1963  002520                     __ptext21:
  1964                           	callstack 0
  1965  002520                     _I2C1_ERROR_ISR:
  1966                           	callstack 120
  1967  002520                     
  1968                           ;mcc_generated_files/i2c_host/src/i2c1.c: 253:     if (I2C1_IsBusCol())
  1969  002520  EC1C  F015         	call	_I2C1_IsBusCol	;wreg free
  1970  002524  0900               	iorlw	0
  1971  002526  B4D8               	btfsc	status,2,c
  1972  002528  EF98  F012         	goto	i2u22_41
  1973  00252C  EF9A  F012         	goto	i2u22_40
  1974  002530                     i2u22_41:
  1975  002530  EFA2  F012         	goto	i2l1479
  1976  002534                     i2u22_40:
  1977  002534                     
  1978                           ;mcc_generated_files/i2c_host/src/i2c1.c: 254:     {;mcc_generated_files/i2c_host/src/i2
      +                          c1.c: 255:         i2c1Status.errorState = I2C_ERROR_BUS_COLLISION;
  1979  002534  0E03               	movlw	3
  1980  002536  6E0D               	movwf	(_i2c1Status+12)^(0+1280),c	;volatile
  1981  002538                     
  1982                           ;mcc_generated_files/i2c_host/src/i2c1.c: 256:         I2C1ERRbits.BCLIF = 0;
  1983  002538  0102               	movlb	2	; () banked
  1984  00253A  9B97               	bcf	151,5,b	;volatile
  1985  00253C                     
  1986                           ; BSR set to: 2
  1987                           ;mcc_generated_files/i2c_host/src/i2c1.c: 257:         I2C1_BusReset();
  1988  00253C  EC5F  F014         	call	_I2C1_BusReset	;wreg free
  1989                           
  1990                           ;mcc_generated_files/i2c_host/src/i2c1.c: 258:     }
  1991  002540  EFEA  F012         	goto	i2l1505
  1992  002544                     i2l1479:
  1993  002544  EC27  F015         	call	_I2C1_IsAddr	;wreg free
  1994  002548  0900               	iorlw	0
  1995  00254A  B4D8               	btfsc	status,2,c
  1996  00254C  EFAA  F012         	goto	i2u23_41
  1997  002550  EFAC  F012         	goto	i2u23_40
  1998  002554                     i2u23_41:
  1999  002554  EFBE  F012         	goto	i2l1489
  2000  002558                     i2u23_40:
  2001  002558  ECFB  F014         	call	_I2C1_IsNack	;wreg free
  2002  00255C  0900               	iorlw	0
  2003  00255E  B4D8               	btfsc	status,2,c
  2004  002560  EFB4  F012         	goto	i2u24_41
  2005  002564  EFB6  F012         	goto	i2u24_40
  2006  002568                     i2u24_41:
  2007  002568  EFBE  F012         	goto	i2l1489
  2008  00256C                     i2u24_40:
  2009  00256C                     
  2010                           ;mcc_generated_files/i2c_host/src/i2c1.c: 260:     {;mcc_generated_files/i2c_host/src/i2
      +                          c1.c: 261:         i2c1Status.errorState = I2C_ERROR_ADDR_NACK;
  2011  00256C  0E01               	movlw	1
  2012  00256E  6E0D               	movwf	(_i2c1Status+12)^(0+1280),c	;volatile
  2013  002570                     
  2014                           ;mcc_generated_files/i2c_host/src/i2c1.c: 262:         I2C1ERRbits.NACKIF = 0;
  2015  002570  0102               	movlb	2	; () banked
  2016  002572  9997               	bcf	151,4,b	;volatile
  2017  002574                     i2l1487:
  2018                           
  2019                           ; BSR set to: 2
  2020                           ;mcc_generated_files/i2c_host/src/i2c1.c: 263:         I2C1_StopSend();
  2021  002574  ECA1  F014         	call	_I2C1_StopSend	;wreg free
  2022                           
  2023                           ;mcc_generated_files/i2c_host/src/i2c1.c: 264:     }
  2024  002578  EFEA  F012         	goto	i2l1505
  2025  00257C                     i2l1489:
  2026  00257C  EC06  F015         	call	_I2C1_IsData	;wreg free
  2027  002580  0900               	iorlw	0
  2028  002582  B4D8               	btfsc	status,2,c
  2029  002584  EFC6  F012         	goto	i2u25_41
  2030  002588  EFC8  F012         	goto	i2u25_40
  2031  00258C                     i2u25_41:
  2032  00258C  EFD8  F012         	goto	i2l1499
  2033  002590                     i2u25_40:
  2034  002590  ECFB  F014         	call	_I2C1_IsNack	;wreg free
  2035  002594  0900               	iorlw	0
  2036  002596  B4D8               	btfsc	status,2,c
  2037  002598  EFD0  F012         	goto	i2u26_41
  2038  00259C  EFD2  F012         	goto	i2u26_40
  2039  0025A0                     i2u26_41:
  2040  0025A0  EFD8  F012         	goto	i2l1499
  2041  0025A4                     i2u26_40:
  2042  0025A4                     
  2043                           ;mcc_generated_files/i2c_host/src/i2c1.c: 266:     {;mcc_generated_files/i2c_host/src/i2
      +                          c1.c: 267:         i2c1Status.errorState = I2C_ERROR_DATA_NACK;
  2044  0025A4  0E02               	movlw	2
  2045  0025A6  6E0D               	movwf	(_i2c1Status+12)^(0+1280),c	;volatile
  2046  0025A8                     
  2047                           ;mcc_generated_files/i2c_host/src/i2c1.c: 268:         I2C1ERRbits.NACKIF = 0;
  2048  0025A8  0102               	movlb	2	; () banked
  2049  0025AA  9997               	bcf	151,4,b	;volatile
  2050  0025AC  EFBA  F012         	goto	i2l1487
  2051  0025B0                     i2l1499:
  2052  0025B0  EC11  F015         	call	_I2C1_IsBusTimeOut	;wreg free
  2053  0025B4  0900               	iorlw	0
  2054  0025B6  B4D8               	btfsc	status,2,c
  2055  0025B8  EFE0  F012         	goto	i2u27_41
  2056  0025BC  EFE2  F012         	goto	i2u27_40
  2057  0025C0                     i2u27_41:
  2058  0025C0  EFE8  F012         	goto	i2l173
  2059  0025C4                     i2u27_40:
  2060  0025C4                     
  2061                           ;mcc_generated_files/i2c_host/src/i2c1.c: 272:     {;mcc_generated_files/i2c_host/src/i2
      +                          c1.c: 273:         i2c1Status.errorState = I2C_ERROR_BUS_COLLISION;
  2062  0025C4  0E03               	movlw	3
  2063  0025C6  6E0D               	movwf	(_i2c1Status+12)^(0+1280),c	;volatile
  2064  0025C8                     
  2065                           ;mcc_generated_files/i2c_host/src/i2c1.c: 274:         I2C1ERRbits.BTOIF = 0;
  2066  0025C8  0102               	movlb	2	; () banked
  2067  0025CA  9D97               	bcf	151,6,b	;volatile
  2068                           
  2069                           ;mcc_generated_files/i2c_host/src/i2c1.c: 275:     }
  2070  0025CC  EFEA  F012         	goto	i2l1505
  2071  0025D0                     i2l173:
  2072                           
  2073                           ;mcc_generated_files/i2c_host/src/i2c1.c: 277:     {;mcc_generated_files/i2c_host/src/i2
      +                          c1.c: 278:         I2C1ERRbits.NACKIF = 0;
  2074  0025D0  0102               	movlb	2	; () banked
  2075  0025D2  9997               	bcf	151,4,b	;volatile
  2076  0025D4                     i2l1505:
  2077                           
  2078                           ;mcc_generated_files/i2c_host/src/i2c1.c: 281:     if (i2c1Status.errorState != I2C_ERRO
      +                          R_NONE)
  2079  0025D4  500D               	movf	(_i2c1Status+12)^(0+1280),w,c	;volatile
  2080  0025D6  B4D8               	btfsc	status,2,c
  2081  0025D8  EFF0  F012         	goto	i2u28_41
  2082  0025DC  EFF2  F012         	goto	i2u28_40
  2083  0025E0                     i2u28_41:
  2084  0025E0  EFFF  F012         	goto	i2l176
  2085  0025E4                     i2u28_40:
  2086  0025E4                     
  2087                           ;mcc_generated_files/i2c_host/src/i2c1.c: 282:     {;mcc_generated_files/i2c_host/src/i2
      +                          c1.c: 283:         I2C1_Callback();
  2088  0025E4  D802               	call	i2u29_48
  2089  0025E6  EFFF  F012         	goto	i2u29_49
  2090  0025EA                     i2u29_48:
  2091  0025EA  0005               	push	
  2092  0025EC  6EFA               	movwf	pclath,c
  2093  0025EE  5017               	movf	_I2C1_Callback^(0+1280),w,c
  2094  0025F0  6EFD               	movwf	tosl,c
  2095  0025F2  5018               	movf	(_I2C1_Callback+1)^(0+1280),w,c
  2096  0025F4  6EFE               	movwf	tosh,c
  2097  0025F6  5019               	movf	(_I2C1_Callback+2)^(0+1280),w,c
  2098  0025F8  6EFF               	movwf	tosu,c
  2099  0025FA  50FA               	movf	pclath,w,c
  2100  0025FC  0012               	return		;indir
  2101  0025FE                     i2u29_49:
  2102  0025FE                     i2l176:
  2103  0025FE  0012               	return		;funcret
  2104  002600                     __end_of_I2C1_ERROR_ISR:
  2105                           	callstack 0
  2106                           
  2107 ;; *************** function _I2C1_StopSend *****************
  2108 ;; Defined at:
  2109 ;;		line 411 in file "mcc_generated_files/i2c_host/src/i2c1.c"
  2110 ;; Parameters:    Size  Location     Type
  2111 ;;		None
  2112 ;; Auto vars:     Size  Location     Type
  2113 ;;		None
  2114 ;; Return value:  Size  Location     Type
  2115 ;;                  1    wreg      void 
  2116 ;; Registers used:
  2117 ;;		wreg, status,2, cstack
  2118 ;; Tracked objects:
  2119 ;;		On entry : 0/0
  2120 ;;		On exit  : 0/0
  2121 ;;		Unchanged: 0/0
  2122 ;; Data sizes:     COMRAM   BANK5   BANK6   BANK7   BANK8   BANK9  BANK10  BANK11  BANK12  BANK13  BANK14  BANK15  BANK1
      +6  BANK17  BANK18  BANK19  BANK20  BANK21  BANK22  BANK23  BANK24  BANK25  BANK26  BANK27  BANK28  BANK29  BANK30  BANK3
      +1  BANK32  BANK33  BANK34  BANK35  BANK36
  2123 ;;      Params:         0       0       0       0       0       0       0       0       0       0       0       0       
      +0       0       0       0       0       0       0       0       0       0       0       0       0       0       0       
      +0       0       0       0       0       0
  2124 ;;      Locals:         0       0       0       0       0       0       0       0       0       0       0       0       
      +0       0       0       0       0       0       0       0       0       0       0       0       0       0       0       
      +0       0       0       0       0       0
  2125 ;;      Temps:          0       0       0       0       0       0       0       0       0       0       0       0       
      +0       0       0       0       0       0       0       0       0       0       0       0       0       0       0       
      +0       0       0       0       0       0
  2126 ;;      Totals:         0       0       0       0       0       0       0       0       0       0       0       0       
      +0       0       0       0       0       0       0       0       0       0       0       0       0       0       0       
      +0       0       0       0       0       0
  2127 ;;Total ram usage:        0 bytes
  2128 ;; Hardware stack levels used: 1
  2129 ;; Hardware stack levels required when called: 1
  2130 ;; This function calls:
  2131 ;;		_I2C1_CounterGet
  2132 ;;		_I2C1_CounterSet
  2133 ;;		_I2C1_DataTransmit
  2134 ;;		_I2C1_RestartDisable
  2135 ;; This function is called by:
  2136 ;;		_I2C1_ISR
  2137 ;;		_I2C1_ERROR_ISR
  2138 ;; This function uses a non-reentrant model
  2139 ;;
  2140                           
  2141                           	psect	text22
  2142  002942                     __ptext22:
  2143                           	callstack 0
  2144  002942                     _I2C1_StopSend:
  2145                           	callstack 120
  2146  002942                     
  2147                           ;mcc_generated_files/i2c_host/src/i2c1.c: 413:     I2C1_RestartDisable();
  2148  002942  EC97  F015         	call	_I2C1_RestartDisable	;wreg free
  2149  002946                     
  2150                           ;mcc_generated_files/i2c_host/src/i2c1.c: 414:     if (I2C1_CounterGet())
  2151  002946  EC9A  F015         	call	_I2C1_CounterGet	;wreg free
  2152  00294A  0900               	iorlw	0
  2153  00294C  B4D8               	btfsc	status,2,c
  2154  00294E  EFAB  F014         	goto	i2u7_41
  2155  002952  EFAD  F014         	goto	i2u7_40
  2156  002956                     i2u7_41:
  2157  002956  EFB3  F014         	goto	i2l228
  2158  00295A                     i2u7_40:
  2159  00295A                     
  2160                           ;mcc_generated_files/i2c_host/src/i2c1.c: 415:     {;mcc_generated_files/i2c_host/src/i2
      +                          c1.c: 416:         I2C1_CounterSet(0);
  2161  00295A  0E00               	movlw	0
  2162  00295C  EC7E  F015         	call	_I2C1_CounterSet
  2163                           
  2164                           ;mcc_generated_files/i2c_host/src/i2c1.c: 417:         I2C1_DataTransmit(0);
  2165  002960  0E00               	movlw	0
  2166  002962  EC79  F015         	call	_I2C1_DataTransmit
  2167  002966                     i2l228:
  2168  002966  0012               	return		;funcret
  2169  002968                     __end_of_I2C1_StopSend:
  2170                           	callstack 0
  2171                           
  2172 ;; *************** function _I2C1_RestartDisable *****************
  2173 ;; Defined at:
  2174 ;;		line 406 in file "mcc_generated_files/i2c_host/src/i2c1.c"
  2175 ;; Parameters:    Size  Location     Type
  2176 ;;		None
  2177 ;; Auto vars:     Size  Location     Type
  2178 ;;		None
  2179 ;; Return value:  Size  Location     Type
  2180 ;;                  1    wreg      void 
  2181 ;; Registers used:
  2182 ;;		None
  2183 ;; Tracked objects:
  2184 ;;		On entry : 0/0
  2185 ;;		On exit  : 0/0
  2186 ;;		Unchanged: 0/0
  2187 ;; Data sizes:     COMRAM   BANK5   BANK6   BANK7   BANK8   BANK9  BANK10  BANK11  BANK12  BANK13  BANK14  BANK15  BANK1
      +6  BANK17  BANK18  BANK19  BANK20  BANK21  BANK22  BANK23  BANK24  BANK25  BANK26  BANK27  BANK28  BANK29  BANK30  BANK3
      +1  BANK32  BANK33  BANK34  BANK35  BANK36
  2188 ;;      Params:         0       0       0       0       0       0       0       0       0       0       0       0       
      +0       0       0       0       0       0       0       0       0       0       0       0       0       0       0       
      +0       0       0       0       0       0
  2189 ;;      Locals:         0       0       0       0       0       0       0       0       0       0       0       0       
      +0       0       0       0       0       0       0       0       0       0       0       0       0       0       0       
      +0       0       0       0       0       0
  2190 ;;      Temps:          0       0       0       0       0       0       0       0       0       0       0       0       
      +0       0       0       0       0       0       0       0       0       0       0       0       0       0       0       
      +0       0       0       0       0       0
  2191 ;;      Totals:         0       0       0       0       0       0       0       0       0       0       0       0       
      +0       0       0       0       0       0       0       0       0       0       0       0       0       0       0       
      +0       0       0       0       0       0
  2192 ;;Total ram usage:        0 bytes
  2193 ;; Hardware stack levels used: 1
  2194 ;; This function calls:
  2195 ;;		Nothing
  2196 ;; This function is called by:
  2197 ;;		_I2C1_ISR
  2198 ;;		_I2C1_StopSend
  2199 ;; This function uses a non-reentrant model
  2200 ;;
  2201                           
  2202                           	psect	text23
  2203  002B2E                     __ptext23:
  2204                           	callstack 0
  2205  002B2E                     _I2C1_RestartDisable:
  2206                           	callstack 120
  2207  002B2E                     
  2208                           ;mcc_generated_files/i2c_host/src/i2c1.c: 408:     I2C1CON0bits.RSEN = 0;
  2209  002B2E  0102               	movlb	2	; () banked
  2210  002B30  9D94               	bcf	148,6,b	;volatile
  2211  002B32                     
  2212                           ; BSR set to: 2
  2213  002B32  0012               	return		;funcret
  2214  002B34                     __end_of_I2C1_RestartDisable:
  2215                           	callstack 0
  2216                           
  2217 ;; *************** function _I2C1_DataTransmit *****************
  2218 ;; Defined at:
  2219 ;;		line 355 in file "mcc_generated_files/i2c_host/src/i2c1.c"
  2220 ;; Parameters:    Size  Location     Type
  2221 ;;  data            1    wreg     unsigned char 
  2222 ;; Auto vars:     Size  Location     Type
  2223 ;;  data            1    0[COMRAM] unsigned char 
  2224 ;; Return value:  Size  Location     Type
  2225 ;;                  1    wreg      void 
  2226 ;; Registers used:
  2227 ;;		wreg
  2228 ;; Tracked objects:
  2229 ;;		On entry : 0/0
  2230 ;;		On exit  : 0/0
  2231 ;;		Unchanged: 0/0
  2232 ;; Data sizes:     COMRAM   BANK5   BANK6   BANK7   BANK8   BANK9  BANK10  BANK11  BANK12  BANK13  BANK14  BANK15  BANK1
      +6  BANK17  BANK18  BANK19  BANK20  BANK21  BANK22  BANK23  BANK24  BANK25  BANK26  BANK27  BANK28  BANK29  BANK30  BANK3
      +1  BANK32  BANK33  BANK34  BANK35  BANK36
  2233 ;;      Params:         0       0       0       0       0       0       0       0       0       0       0       0       
      +0       0       0       0       0       0       0       0       0       0       0       0       0       0       0       
      +0       0       0       0       0       0
  2234 ;;      Locals:         1       0       0       0       0       0       0       0       0       0       0       0       
      +0       0       0       0       0       0       0       0       0       0       0       0       0       0       0       
      +0       0       0       0       0       0
  2235 ;;      Temps:          0       0       0       0       0       0       0       0       0       0       0       0       
      +0       0       0       0       0       0       0       0       0       0       0       0       0       0       0       
      +0       0       0       0       0       0
  2236 ;;      Totals:         1       0       0       0       0       0       0       0       0       0       0       0       
      +0       0       0       0       0       0       0       0       0       0       0       0       0       0       0       
      +0       0       0       0       0       0
  2237 ;;Total ram usage:        1 bytes
  2238 ;; Hardware stack levels used: 1
  2239 ;; This function calls:
  2240 ;;		Nothing
  2241 ;; This function is called by:
  2242 ;;		_I2C1_TX_ISR
  2243 ;;		_I2C1_StopSend
  2244 ;; This function uses a non-reentrant model
  2245 ;;
  2246                           
  2247                           	psect	text24
  2248  002AF2                     __ptext24:
  2249                           	callstack 0
  2250  002AF2                     _I2C1_DataTransmit:
  2251                           	callstack 121
  2252                           
  2253                           ; BSR set to: 2
  2254                           ;incstack = 0
  2255                           ;I2C1_DataTransmit@data stored from wreg
  2256  002AF2  6E1A               	movwf	I2C1_DataTransmit@data^(0+1280),c
  2257  002AF4                     
  2258                           ;mcc_generated_files/i2c_host/src/i2c1.c: 355: static void I2C1_DataTransmit(uint8_t dat
      +                          a);mcc_generated_files/i2c_host/src/i2c1.c: 356: {;mcc_generated_files/i2c_host/src/i2c1
      +                          .c: 357:     I2C1TXB = data;
  2259  002AF4  0061  F468  F28C   	movff	I2C1_DataTransmit@data,652	;volatile
  2260  002AFA  0012               	return		;funcret
  2261  002AFC                     __end_of_I2C1_DataTransmit:
  2262                           	callstack 0
  2263                           
  2264 ;; *************** function _I2C1_CounterSet *****************
  2265 ;; Defined at:
  2266 ;;		line 365 in file "mcc_generated_files/i2c_host/src/i2c1.c"
  2267 ;; Parameters:    Size  Location     Type
  2268 ;;  counter         1    wreg     unsigned char 
  2269 ;; Auto vars:     Size  Location     Type
  2270 ;;  counter         1    0[COMRAM] unsigned char 
  2271 ;; Return value:  Size  Location     Type
  2272 ;;                  1    wreg      void 
  2273 ;; Registers used:
  2274 ;;		wreg
  2275 ;; Tracked objects:
  2276 ;;		On entry : 0/0
  2277 ;;		On exit  : 0/0
  2278 ;;		Unchanged: 0/0
  2279 ;; Data sizes:     COMRAM   BANK5   BANK6   BANK7   BANK8   BANK9  BANK10  BANK11  BANK12  BANK13  BANK14  BANK15  BANK1
      +6  BANK17  BANK18  BANK19  BANK20  BANK21  BANK22  BANK23  BANK24  BANK25  BANK26  BANK27  BANK28  BANK29  BANK30  BANK3
      +1  BANK32  BANK33  BANK34  BANK35  BANK36
  2280 ;;      Params:         0       0       0       0       0       0       0       0       0       0       0       0       
      +0       0       0       0       0       0       0       0       0       0       0       0       0       0       0       
      +0       0       0       0       0       0
  2281 ;;      Locals:         1       0       0       0       0       0       0       0       0       0       0       0       
      +0       0       0       0       0       0       0       0       0       0       0       0       0       0       0       
      +0       0       0       0       0       0
  2282 ;;      Temps:          0       0       0       0       0       0       0       0       0       0       0       0       
      +0       0       0       0       0       0       0       0       0       0       0       0       0       0       0       
      +0       0       0       0       0       0
  2283 ;;      Totals:         1       0       0       0       0       0       0       0       0       0       0       0       
      +0       0       0       0       0       0       0       0       0       0       0       0       0       0       0       
      +0       0       0       0       0       0
  2284 ;;Total ram usage:        1 bytes
  2285 ;; Hardware stack levels used: 1
  2286 ;; This function calls:
  2287 ;;		Nothing
  2288 ;; This function is called by:
  2289 ;;		_I2C1_ReadStart
  2290 ;;		_I2C1_StopSend
  2291 ;;		_I2C1_WriteStart
  2292 ;; This function uses a non-reentrant model
  2293 ;;
  2294                           
  2295                           	psect	text25
  2296  002AFC                     __ptext25:
  2297                           	callstack 0
  2298  002AFC                     _I2C1_CounterSet:
  2299                           	callstack 120
  2300                           
  2301                           ;incstack = 0
  2302                           ;I2C1_CounterSet@counter stored from wreg
  2303  002AFC  6E1A               	movwf	I2C1_CounterSet@counter^(0+1280),c
  2304  002AFE                     
  2305                           ;mcc_generated_files/i2c_host/src/i2c1.c: 365: static void I2C1_CounterSet(uint8_t count
      +                          er);mcc_generated_files/i2c_host/src/i2c1.c: 366: {;mcc_generated_files/i2c_host/src/i2c
      +                          1.c: 367:     I2C1CNT = counter;
  2306  002AFE  0061  F468  F28D   	movff	I2C1_CounterSet@counter,653	;volatile
  2307  002B04  0012               	return		;funcret
  2308  002B06                     __end_of_I2C1_CounterSet:
  2309                           	callstack 0
  2310                           
  2311 ;; *************** function _I2C1_CounterGet *****************
  2312 ;; Defined at:
  2313 ;;		line 370 in file "mcc_generated_files/i2c_host/src/i2c1.c"
  2314 ;; Parameters:    Size  Location     Type
  2315 ;;		None
  2316 ;; Auto vars:     Size  Location     Type
  2317 ;;		None
  2318 ;; Return value:  Size  Location     Type
  2319 ;;                  1    wreg      unsigned char 
  2320 ;; Registers used:
  2321 ;;		wreg, status,2
  2322 ;; Tracked objects:
  2323 ;;		On entry : 0/0
  2324 ;;		On exit  : 0/0
  2325 ;;		Unchanged: 0/0
  2326 ;; Data sizes:     COMRAM   BANK5   BANK6   BANK7   BANK8   BANK9  BANK10  BANK11  BANK12  BANK13  BANK14  BANK15  BANK1
      +6  BANK17  BANK18  BANK19  BANK20  BANK21  BANK22  BANK23  BANK24  BANK25  BANK26  BANK27  BANK28  BANK29  BANK30  BANK3
      +1  BANK32  BANK33  BANK34  BANK35  BANK36
  2327 ;;      Params:         0       0       0       0       0       0       0       0       0       0       0       0       
      +0       0       0       0       0       0       0       0       0       0       0       0       0       0       0       
      +0       0       0       0       0       0
  2328 ;;      Locals:         0       0       0       0       0       0       0       0       0       0       0       0       
      +0       0       0       0       0       0       0       0       0       0       0       0       0       0       0       
      +0       0       0       0       0       0
  2329 ;;      Temps:          0       0       0       0       0       0       0       0       0       0       0       0       
      +0       0       0       0       0       0       0       0       0       0       0       0       0       0       0       
      +0       0       0       0       0       0
  2330 ;;      Totals:         0       0       0       0       0       0       0       0       0       0       0       0       
      +0       0       0       0       0       0       0       0       0       0       0       0       0       0       0       
      +0       0       0       0       0       0
  2331 ;;Total ram usage:        0 bytes
  2332 ;; Hardware stack levels used: 1
  2333 ;; This function calls:
  2334 ;;		Nothing
  2335 ;; This function is called by:
  2336 ;;		_I2C1_StopSend
  2337 ;; This function uses a non-reentrant model
  2338 ;;
  2339                           
  2340                           	psect	text26
  2341  002B34                     __ptext26:
  2342                           	callstack 0
  2343  002B34                     _I2C1_CounterGet:
  2344                           	callstack 120
  2345  002B34                     
  2346                           ;mcc_generated_files/i2c_host/src/i2c1.c: 372:     return (uint8_t) I2C1CNT;
  2347  002B34  0102               	movlb	2	; () banked
  2348  002B36  518D               	movf	141,w,b	;volatile
  2349  002B38                     
  2350                           ; BSR set to: 2
  2351  002B38  0012               	return		;funcret
  2352  002B3A                     __end_of_I2C1_CounterGet:
  2353                           	callstack 0
  2354                           
  2355 ;; *************** function _I2C1_IsNack *****************
  2356 ;; Defined at:
  2357 ;;		line 421 in file "mcc_generated_files/i2c_host/src/i2c1.c"
  2358 ;; Parameters:    Size  Location     Type
  2359 ;;		None
  2360 ;; Auto vars:     Size  Location     Type
  2361 ;;		None
  2362 ;; Return value:  Size  Location     Type
  2363 ;;                  1    wreg      _Bool 
  2364 ;; Registers used:
  2365 ;;		wreg
  2366 ;; Tracked objects:
  2367 ;;		On entry : 0/0
  2368 ;;		On exit  : 0/0
  2369 ;;		Unchanged: 0/0
  2370 ;; Data sizes:     COMRAM   BANK5   BANK6   BANK7   BANK8   BANK9  BANK10  BANK11  BANK12  BANK13  BANK14  BANK15  BANK1
      +6  BANK17  BANK18  BANK19  BANK20  BANK21  BANK22  BANK23  BANK24  BANK25  BANK26  BANK27  BANK28  BANK29  BANK30  BANK3
      +1  BANK32  BANK33  BANK34  BANK35  BANK36
  2371 ;;      Params:         0       0       0       0       0       0       0       0       0       0       0       0       
      +0       0       0       0       0       0       0       0       0       0       0       0       0       0       0       
      +0       0       0       0       0       0
  2372 ;;      Locals:         0       0       0       0       0       0       0       0       0       0       0       0       
      +0       0       0       0       0       0       0       0       0       0       0       0       0       0       0       
      +0       0       0       0       0       0
  2373 ;;      Temps:          0       0       0       0       0       0       0       0       0       0       0       0       
      +0       0       0       0       0       0       0       0       0       0       0       0       0       0       0       
      +0       0       0       0       0       0
  2374 ;;      Totals:         0       0       0       0       0       0       0       0       0       0       0       0       
      +0       0       0       0       0       0       0       0       0       0       0       0       0       0       0       
      +0       0       0       0       0       0
  2375 ;;Total ram usage:        0 bytes
  2376 ;; Hardware stack levels used: 1
  2377 ;; This function calls:
  2378 ;;		Nothing
  2379 ;; This function is called by:
  2380 ;;		_I2C1_ERROR_ISR
  2381 ;; This function uses a non-reentrant model
  2382 ;;
  2383                           
  2384                           	psect	text27
  2385  0029F6                     __ptext27:
  2386                           	callstack 0
  2387  0029F6                     _I2C1_IsNack:
  2388                           	callstack 121
  2389  0029F6                     
  2390                           ;mcc_generated_files/i2c_host/src/i2c1.c: 423:     return I2C1CON1bits.ACKSTAT;
  2391  0029F6  0102               	movlb	2	; () banked
  2392  0029F8  BB95               	btfsc	149,5,b	;volatile
  2393  0029FA  EF01  F015         	goto	i2u11_41
  2394  0029FE  EF04  F015         	goto	i2u11_40
  2395  002A02                     i2u11_41:
  2396  002A02  0E01               	movlw	1
  2397  002A04  EF05  F015         	goto	i2u11_46
  2398  002A08                     i2u11_40:
  2399  002A08  0E00               	movlw	0
  2400  002A0A                     i2u11_46:
  2401  002A0A                     
  2402                           ; BSR set to: 2
  2403  002A0A  0012               	return		;funcret
  2404  002A0C                     __end_of_I2C1_IsNack:
  2405                           	callstack 0
  2406                           
  2407 ;; *************** function _I2C1_IsData *****************
  2408 ;; Defined at:
  2409 ;;		line 436 in file "mcc_generated_files/i2c_host/src/i2c1.c"
  2410 ;; Parameters:    Size  Location     Type
  2411 ;;		None
  2412 ;; Auto vars:     Size  Location     Type
  2413 ;;		None
  2414 ;; Return value:  Size  Location     Type
  2415 ;;                  1    wreg      _Bool 
  2416 ;; Registers used:
  2417 ;;		wreg
  2418 ;; Tracked objects:
  2419 ;;		On entry : 0/0
  2420 ;;		On exit  : 0/0
  2421 ;;		Unchanged: 0/0
  2422 ;; Data sizes:     COMRAM   BANK5   BANK6   BANK7   BANK8   BANK9  BANK10  BANK11  BANK12  BANK13  BANK14  BANK15  BANK1
      +6  BANK17  BANK18  BANK19  BANK20  BANK21  BANK22  BANK23  BANK24  BANK25  BANK26  BANK27  BANK28  BANK29  BANK30  BANK3
      +1  BANK32  BANK33  BANK34  BANK35  BANK36
  2423 ;;      Params:         0       0       0       0       0       0       0       0       0       0       0       0       
      +0       0       0       0       0       0       0       0       0       0       0       0       0       0       0       
      +0       0       0       0       0       0
  2424 ;;      Locals:         0       0       0       0       0       0       0       0       0       0       0       0       
      +0       0       0       0       0       0       0       0       0       0       0       0       0       0       0       
      +0       0       0       0       0       0
  2425 ;;      Temps:          0       0       0       0       0       0       0       0       0       0       0       0       
      +0       0       0       0       0       0       0       0       0       0       0       0       0       0       0       
      +0       0       0       0       0       0
  2426 ;;      Totals:         0       0       0       0       0       0       0       0       0       0       0       0       
      +0       0       0       0       0       0       0       0       0       0       0       0       0       0       0       
      +0       0       0       0       0       0
  2427 ;;Total ram usage:        0 bytes
  2428 ;; Hardware stack levels used: 1
  2429 ;; This function calls:
  2430 ;;		Nothing
  2431 ;; This function is called by:
  2432 ;;		_I2C1_ERROR_ISR
  2433 ;; This function uses a non-reentrant model
  2434 ;;
  2435                           
  2436                           	psect	text28
  2437  002A0C                     __ptext28:
  2438                           	callstack 0
  2439  002A0C                     _I2C1_IsData:
  2440                           	callstack 121
  2441  002A0C                     
  2442                           ;mcc_generated_files/i2c_host/src/i2c1.c: 438:     return I2C1STAT0bits.D;
  2443  002A0C  0102               	movlb	2	; () banked
  2444  002A0E  B798               	btfsc	152,3,b	;volatile
  2445  002A10  EF0C  F015         	goto	i2u12_41
  2446  002A14  EF0F  F015         	goto	i2u12_40
  2447  002A18                     i2u12_41:
  2448  002A18  0E01               	movlw	1
  2449  002A1A  EF10  F015         	goto	i2u12_46
  2450  002A1E                     i2u12_40:
  2451  002A1E  0E00               	movlw	0
  2452  002A20                     i2u12_46:
  2453  002A20                     
  2454                           ; BSR set to: 2
  2455  002A20  0012               	return		;funcret
  2456  002A22                     __end_of_I2C1_IsData:
  2457                           	callstack 0
  2458                           
  2459 ;; *************** function _I2C1_IsBusTimeOut *****************
  2460 ;; Defined at:
  2461 ;;		line 431 in file "mcc_generated_files/i2c_host/src/i2c1.c"
  2462 ;; Parameters:    Size  Location     Type
  2463 ;;		None
  2464 ;; Auto vars:     Size  Location     Type
  2465 ;;		None
  2466 ;; Return value:  Size  Location     Type
  2467 ;;                  1    wreg      _Bool 
  2468 ;; Registers used:
  2469 ;;		wreg
  2470 ;; Tracked objects:
  2471 ;;		On entry : 0/0
  2472 ;;		On exit  : 0/0
  2473 ;;		Unchanged: 0/0
  2474 ;; Data sizes:     COMRAM   BANK5   BANK6   BANK7   BANK8   BANK9  BANK10  BANK11  BANK12  BANK13  BANK14  BANK15  BANK1
      +6  BANK17  BANK18  BANK19  BANK20  BANK21  BANK22  BANK23  BANK24  BANK25  BANK26  BANK27  BANK28  BANK29  BANK30  BANK3
      +1  BANK32  BANK33  BANK34  BANK35  BANK36
  2475 ;;      Params:         0       0       0       0       0       0       0       0       0       0       0       0       
      +0       0       0       0       0       0       0       0       0       0       0       0       0       0       0       
      +0       0       0       0       0       0
  2476 ;;      Locals:         0       0       0       0       0       0       0       0       0       0       0       0       
      +0       0       0       0       0       0       0       0       0       0       0       0       0       0       0       
      +0       0       0       0       0       0
  2477 ;;      Temps:          0       0       0       0       0       0       0       0       0       0       0       0       
      +0       0       0       0       0       0       0       0       0       0       0       0       0       0       0       
      +0       0       0       0       0       0
  2478 ;;      Totals:         0       0       0       0       0       0       0       0       0       0       0       0       
      +0       0       0       0       0       0       0       0       0       0       0       0       0       0       0       
      +0       0       0       0       0       0
  2479 ;;Total ram usage:        0 bytes
  2480 ;; Hardware stack levels used: 1
  2481 ;; This function calls:
  2482 ;;		Nothing
  2483 ;; This function is called by:
  2484 ;;		_I2C1_ERROR_ISR
  2485 ;; This function uses a non-reentrant model
  2486 ;;
  2487                           
  2488                           	psect	text29
  2489  002A22                     __ptext29:
  2490                           	callstack 0
  2491  002A22                     _I2C1_IsBusTimeOut:
  2492                           	callstack 121
  2493  002A22                     
  2494                           ;mcc_generated_files/i2c_host/src/i2c1.c: 433:     return I2C1ERRbits.BTOIF;
  2495  002A22  0102               	movlb	2	; () banked
  2496  002A24  BD97               	btfsc	151,6,b	;volatile
  2497  002A26  EF17  F015         	goto	i2u13_41
  2498  002A2A  EF1A  F015         	goto	i2u13_40
  2499  002A2E                     i2u13_41:
  2500  002A2E  0E01               	movlw	1
  2501  002A30  EF1B  F015         	goto	i2u13_46
  2502  002A34                     i2u13_40:
  2503  002A34  0E00               	movlw	0
  2504  002A36                     i2u13_46:
  2505  002A36                     
  2506                           ; BSR set to: 2
  2507  002A36  0012               	return		;funcret
  2508  002A38                     __end_of_I2C1_IsBusTimeOut:
  2509                           	callstack 0
  2510                           
  2511 ;; *************** function _I2C1_IsBusCol *****************
  2512 ;; Defined at:
  2513 ;;		line 426 in file "mcc_generated_files/i2c_host/src/i2c1.c"
  2514 ;; Parameters:    Size  Location     Type
  2515 ;;		None
  2516 ;; Auto vars:     Size  Location     Type
  2517 ;;		None
  2518 ;; Return value:  Size  Location     Type
  2519 ;;                  1    wreg      _Bool 
  2520 ;; Registers used:
  2521 ;;		wreg
  2522 ;; Tracked objects:
  2523 ;;		On entry : 0/0
  2524 ;;		On exit  : 0/0
  2525 ;;		Unchanged: 0/0
  2526 ;; Data sizes:     COMRAM   BANK5   BANK6   BANK7   BANK8   BANK9  BANK10  BANK11  BANK12  BANK13  BANK14  BANK15  BANK1
      +6  BANK17  BANK18  BANK19  BANK20  BANK21  BANK22  BANK23  BANK24  BANK25  BANK26  BANK27  BANK28  BANK29  BANK30  BANK3
      +1  BANK32  BANK33  BANK34  BANK35  BANK36
  2527 ;;      Params:         0       0       0       0       0       0       0       0       0       0       0       0       
      +0       0       0       0       0       0       0       0       0       0       0       0       0       0       0       
      +0       0       0       0       0       0
  2528 ;;      Locals:         0       0       0       0       0       0       0       0       0       0       0       0       
      +0       0       0       0       0       0       0       0       0       0       0       0       0       0       0       
      +0       0       0       0       0       0
  2529 ;;      Temps:          0       0       0       0       0       0       0       0       0       0       0       0       
      +0       0       0       0       0       0       0       0       0       0       0       0       0       0       0       
      +0       0       0       0       0       0
  2530 ;;      Totals:         0       0       0       0       0       0       0       0       0       0       0       0       
      +0       0       0       0       0       0       0       0       0       0       0       0       0       0       0       
      +0       0       0       0       0       0
  2531 ;;Total ram usage:        0 bytes
  2532 ;; Hardware stack levels used: 1
  2533 ;; This function calls:
  2534 ;;		Nothing
  2535 ;; This function is called by:
  2536 ;;		_I2C1_ERROR_ISR
  2537 ;; This function uses a non-reentrant model
  2538 ;;
  2539                           
  2540                           	psect	text30
  2541  002A38                     __ptext30:
  2542                           	callstack 0
  2543  002A38                     _I2C1_IsBusCol:
  2544                           	callstack 121
  2545  002A38                     
  2546                           ;mcc_generated_files/i2c_host/src/i2c1.c: 428:     return I2C1ERRbits.BCLIF;
  2547  002A38  0102               	movlb	2	; () banked
  2548  002A3A  BB97               	btfsc	151,5,b	;volatile
  2549  002A3C  EF22  F015         	goto	i2u8_41
  2550  002A40  EF25  F015         	goto	i2u8_40
  2551  002A44                     i2u8_41:
  2552  002A44  0E01               	movlw	1
  2553  002A46  EF26  F015         	goto	i2u8_46
  2554  002A4A                     i2u8_40:
  2555  002A4A  0E00               	movlw	0
  2556  002A4C                     i2u8_46:
  2557  002A4C                     
  2558                           ; BSR set to: 2
  2559  002A4C  0012               	return		;funcret
  2560  002A4E                     __end_of_I2C1_IsBusCol:
  2561                           	callstack 0
  2562                           
  2563 ;; *************** function _I2C1_IsAddr *****************
  2564 ;; Defined at:
  2565 ;;		line 441 in file "mcc_generated_files/i2c_host/src/i2c1.c"
  2566 ;; Parameters:    Size  Location     Type
  2567 ;;		None
  2568 ;; Auto vars:     Size  Location     Type
  2569 ;;		None
  2570 ;; Return value:  Size  Location     Type
  2571 ;;                  1    wreg      _Bool 
  2572 ;; Registers used:
  2573 ;;		wreg
  2574 ;; Tracked objects:
  2575 ;;		On entry : 0/0
  2576 ;;		On exit  : 0/0
  2577 ;;		Unchanged: 0/0
  2578 ;; Data sizes:     COMRAM   BANK5   BANK6   BANK7   BANK8   BANK9  BANK10  BANK11  BANK12  BANK13  BANK14  BANK15  BANK1
      +6  BANK17  BANK18  BANK19  BANK20  BANK21  BANK22  BANK23  BANK24  BANK25  BANK26  BANK27  BANK28  BANK29  BANK30  BANK3
      +1  BANK32  BANK33  BANK34  BANK35  BANK36
  2579 ;;      Params:         0       0       0       0       0       0       0       0       0       0       0       0       
      +0       0       0       0       0       0       0       0       0       0       0       0       0       0       0       
      +0       0       0       0       0       0
  2580 ;;      Locals:         0       0       0       0       0       0       0       0       0       0       0       0       
      +0       0       0       0       0       0       0       0       0       0       0       0       0       0       0       
      +0       0       0       0       0       0
  2581 ;;      Temps:          0       0       0       0       0       0       0       0       0       0       0       0       
      +0       0       0       0       0       0       0       0       0       0       0       0       0       0       0       
      +0       0       0       0       0       0
  2582 ;;      Totals:         0       0       0       0       0       0       0       0       0       0       0       0       
      +0       0       0       0       0       0       0       0       0       0       0       0       0       0       0       
      +0       0       0       0       0       0
  2583 ;;Total ram usage:        0 bytes
  2584 ;; Hardware stack levels used: 1
  2585 ;; This function calls:
  2586 ;;		Nothing
  2587 ;; This function is called by:
  2588 ;;		_I2C1_ERROR_ISR
  2589 ;; This function uses a non-reentrant model
  2590 ;;
  2591                           
  2592                           	psect	text31
  2593  002A4E                     __ptext31:
  2594                           	callstack 0
  2595  002A4E                     _I2C1_IsAddr:
  2596                           	callstack 121
  2597  002A4E                     
  2598                           ;mcc_generated_files/i2c_host/src/i2c1.c: 443:     return !I2C1STAT0bits.D;
  2599  002A4E  0102               	movlb	2	; () banked
  2600  002A50  A798               	btfss	152,3,b	;volatile
  2601  002A52  EF2D  F015         	goto	i2u9_41
  2602  002A56  EF30  F015         	goto	i2u9_40
  2603  002A5A                     i2u9_41:
  2604  002A5A  0E01               	movlw	1
  2605  002A5C  EF31  F015         	goto	i2u10_40
  2606  002A60                     i2u9_40:
  2607  002A60  0E00               	movlw	0
  2608  002A62                     i2u10_40:
  2609  002A62                     
  2610                           ; BSR set to: 2
  2611  002A62  0012               	return		;funcret
  2612  002A64                     __end_of_I2C1_IsAddr:
  2613                           	callstack 0
  2614                           
  2615 ;; *************** function _I2C1_DefaultCallback *****************
  2616 ;; Defined at:
  2617 ;;		line 337 in file "mcc_generated_files/i2c_host/src/i2c1.c"
  2618 ;; Parameters:    Size  Location     Type
  2619 ;;		None
  2620 ;; Auto vars:     Size  Location     Type
  2621 ;;		None
  2622 ;; Return value:  Size  Location     Type
  2623 ;;                  1    wreg      void 
  2624 ;; Registers used:
  2625 ;;		None
  2626 ;; Tracked objects:
  2627 ;;		On entry : 0/0
  2628 ;;		On exit  : 0/0
  2629 ;;		Unchanged: 0/0
  2630 ;; Data sizes:     COMRAM   BANK5   BANK6   BANK7   BANK8   BANK9  BANK10  BANK11  BANK12  BANK13  BANK14  BANK15  BANK1
      +6  BANK17  BANK18  BANK19  BANK20  BANK21  BANK22  BANK23  BANK24  BANK25  BANK26  BANK27  BANK28  BANK29  BANK30  BANK3
      +1  BANK32  BANK33  BANK34  BANK35  BANK36
  2631 ;;      Params:         0       0       0       0       0       0       0       0       0       0       0       0       
      +0       0       0       0       0       0       0       0       0       0       0       0       0       0       0       
      +0       0       0       0       0       0
  2632 ;;      Locals:         0       0       0       0       0       0       0       0       0       0       0       0       
      +0       0       0       0       0       0       0       0       0       0       0       0       0       0       0       
      +0       0       0       0       0       0
  2633 ;;      Temps:          0       0       0       0       0       0       0       0       0       0       0       0       
      +0       0       0       0       0       0       0       0       0       0       0       0       0       0       0       
      +0       0       0       0       0       0
  2634 ;;      Totals:         0       0       0       0       0       0       0       0       0       0       0       0       
      +0       0       0       0       0       0       0       0       0       0       0       0       0       0       0       
      +0       0       0       0       0       0
  2635 ;;Total ram usage:        0 bytes
  2636 ;; Hardware stack levels used: 1
  2637 ;; This function calls:
  2638 ;;		Nothing
  2639 ;; This function is called by:
  2640 ;;		_I2C1_Initialize
  2641 ;;		_I2C1_Deinitialize
  2642 ;;		_I2C1_ERROR_ISR
  2643 ;; This function uses a non-reentrant model
  2644 ;;
  2645                           
  2646                           	psect	text32
  2647  002B3C                     __ptext32:
  2648                           	callstack 0
  2649  002B3C                     _I2C1_DefaultCallback:
  2650                           	callstack 121
  2651  002B3C  0012               	return		;funcret
  2652  002B3E                     __end_of_I2C1_DefaultCallback:
  2653                           	callstack 0
  2654                           
  2655 ;; *************** function _I2C1_BusReset *****************
  2656 ;; Defined at:
  2657 ;;		line 375 in file "mcc_generated_files/i2c_host/src/i2c1.c"
  2658 ;; Parameters:    Size  Location     Type
  2659 ;;		None
  2660 ;; Auto vars:     Size  Location     Type
  2661 ;;		None
  2662 ;; Return value:  Size  Location     Type
  2663 ;;                  1    wreg      void 
  2664 ;; Registers used:
  2665 ;;		wreg, status,2, cstack
  2666 ;; Tracked objects:
  2667 ;;		On entry : 0/0
  2668 ;;		On exit  : 0/0
  2669 ;;		Unchanged: 0/0
  2670 ;; Data sizes:     COMRAM   BANK5   BANK6   BANK7   BANK8   BANK9  BANK10  BANK11  BANK12  BANK13  BANK14  BANK15  BANK1
      +6  BANK17  BANK18  BANK19  BANK20  BANK21  BANK22  BANK23  BANK24  BANK25  BANK26  BANK27  BANK28  BANK29  BANK30  BANK3
      +1  BANK32  BANK33  BANK34  BANK35  BANK36
  2671 ;;      Params:         0       0       0       0       0       0       0       0       0       0       0       0       
      +0       0       0       0       0       0       0       0       0       0       0       0       0       0       0       
      +0       0       0       0       0       0
  2672 ;;      Locals:         0       0       0       0       0       0       0       0       0       0       0       0       
      +0       0       0       0       0       0       0       0       0       0       0       0       0       0       0       
      +0       0       0       0       0       0
  2673 ;;      Temps:          0       0       0       0       0       0       0       0       0       0       0       0       
      +0       0       0       0       0       0       0       0       0       0       0       0       0       0       0       
      +0       0       0       0       0       0
  2674 ;;      Totals:         0       0       0       0       0       0       0       0       0       0       0       0       
      +0       0       0       0       0       0       0       0       0       0       0       0       0       0       0       
      +0       0       0       0       0       0
  2675 ;;Total ram usage:        0 bytes
  2676 ;; Hardware stack levels used: 1
  2677 ;; Hardware stack levels required when called: 1
  2678 ;; This function calls:
  2679 ;;		_I2C1_BufferClear
  2680 ;;		_I2C1_ErrorFlagsClear
  2681 ;;		_I2C1_InterruptsClear
  2682 ;;		_I2C1_InterruptsDisable
  2683 ;;		i2_I2C1_InterruptsEnable
  2684 ;; This function is called by:
  2685 ;;		_I2C1_ERROR_ISR
  2686 ;; This function uses a non-reentrant model
  2687 ;;
  2688                           
  2689                           	psect	text33
  2690  0028BE                     __ptext33:
  2691                           	callstack 0
  2692  0028BE                     _I2C1_BusReset:
  2693                           	callstack 120
  2694  0028BE                     
  2695                           ;mcc_generated_files/i2c_host/src/i2c1.c: 377:     I2C1_InterruptsClear();
  2696  0028BE  EC8D  F015         	call	_I2C1_InterruptsClear	;wreg free
  2697  0028C2                     
  2698                           ;mcc_generated_files/i2c_host/src/i2c1.c: 378:     I2C1_ErrorFlagsClear();
  2699  0028C2  EC83  F015         	call	_I2C1_ErrorFlagsClear	;wreg free
  2700  0028C6                     
  2701                           ;mcc_generated_files/i2c_host/src/i2c1.c: 379:     I2C1_InterruptsDisable();
  2702  0028C6  EC46  F015         	call	_I2C1_InterruptsDisable	;wreg free
  2703  0028CA                     
  2704                           ;mcc_generated_files/i2c_host/src/i2c1.c: 380:     I2C1_BufferClear();
  2705  0028CA  EC88  F015         	call	_I2C1_BufferClear	;wreg free
  2706  0028CE                     
  2707                           ;mcc_generated_files/i2c_host/src/i2c1.c: 381:     I2C1CON0bits.EN = 0;
  2708  0028CE  0102               	movlb	2	; () banked
  2709  0028D0  9F94               	bcf	148,7,b	;volatile
  2710  0028D2                     
  2711                           ; BSR set to: 2
  2712                           ;mcc_generated_files/i2c_host/src/i2c1.c: 382:     I2C1_InterruptsEnable();
  2713  0028D2  EC3C  F015         	call	i2_I2C1_InterruptsEnable	;wreg free
  2714  0028D6                     
  2715                           ;mcc_generated_files/i2c_host/src/i2c1.c: 386:     I2C1PIEbits.SCIE = 0;
  2716  0028D6  0102               	movlb	2	; () banked
  2717  0028D8  919B               	bcf	155,0,b	;volatile
  2718  0028DA                     
  2719                           ; BSR set to: 2
  2720                           ;mcc_generated_files/i2c_host/src/i2c1.c: 387:     I2C1PIEbits.PCIE = 0;
  2721  0028DA  959B               	bcf	155,2,b	;volatile
  2722  0028DC                     
  2723                           ; BSR set to: 2
  2724                           ;mcc_generated_files/i2c_host/src/i2c1.c: 388:     I2C1CON0bits.EN = 1;
  2725  0028DC  8F94               	bsf	148,7,b	;volatile
  2726  0028DE                     
  2727                           ;mcc_generated_files/i2c_host/src/i2c1.c: 390:     __nop();
  2728  0028DE  F000               	nop	
  2729  0028E0                     
  2730                           ;mcc_generated_files/i2c_host/src/i2c1.c: 391:     __nop();
  2731  0028E0  F000               	nop	
  2732  0028E2                     
  2733                           ;mcc_generated_files/i2c_host/src/i2c1.c: 392:     __nop();
  2734  0028E2  F000               	nop	
  2735  0028E4                     
  2736                           ;mcc_generated_files/i2c_host/src/i2c1.c: 393:     __nop();
  2737  0028E4  F000               	nop	
  2738  0028E6                     
  2739                           ;mcc_generated_files/i2c_host/src/i2c1.c: 394:     __nop();
  2740  0028E6  F000               	nop	
  2741  0028E8                     
  2742                           ;mcc_generated_files/i2c_host/src/i2c1.c: 395:     __nop();
  2743  0028E8  F000               	nop	
  2744  0028EA                     
  2745                           ;mcc_generated_files/i2c_host/src/i2c1.c: 396:     I2C1PIRbits.SCIF = 0;
  2746  0028EA  0102               	movlb	2	; () banked
  2747  0028EC  919A               	bcf	154,0,b	;volatile
  2748  0028EE                     
  2749                           ; BSR set to: 2
  2750                           ;mcc_generated_files/i2c_host/src/i2c1.c: 397:     I2C1PIRbits.PCIF = 0;
  2751  0028EE  959A               	bcf	154,2,b	;volatile
  2752  0028F0                     
  2753                           ; BSR set to: 2
  2754                           ;mcc_generated_files/i2c_host/src/i2c1.c: 398:     I2C1PIEbits.PCIE = 1;
  2755  0028F0  859B               	bsf	155,2,b	;volatile
  2756  0028F2                     
  2757                           ; BSR set to: 2
  2758  0028F2  0012               	return		;funcret
  2759  0028F4                     __end_of_I2C1_BusReset:
  2760                           	callstack 0
  2761                           
  2762 ;; *************** function i2_I2C1_InterruptsEnable *****************
  2763 ;; Defined at:
  2764 ;;		line 446 in file "mcc_generated_files/i2c_host/src/i2c1.c"
  2765 ;; Parameters:    Size  Location     Type
  2766 ;;		None
  2767 ;; Auto vars:     Size  Location     Type
  2768 ;;		None
  2769 ;; Return value:  Size  Location     Type
  2770 ;;                  1    wreg      void 
  2771 ;; Registers used:
  2772 ;;		None
  2773 ;; Tracked objects:
  2774 ;;		On entry : 0/0
  2775 ;;		On exit  : 0/0
  2776 ;;		Unchanged: 0/0
  2777 ;; Data sizes:     COMRAM   BANK5   BANK6   BANK7   BANK8   BANK9  BANK10  BANK11  BANK12  BANK13  BANK14  BANK15  BANK1
      +6  BANK17  BANK18  BANK19  BANK20  BANK21  BANK22  BANK23  BANK24  BANK25  BANK26  BANK27  BANK28  BANK29  BANK30  BANK3
      +1  BANK32  BANK33  BANK34  BANK35  BANK36
  2778 ;;      Params:         0       0       0       0       0       0       0       0       0       0       0       0       
      +0       0       0       0       0       0       0       0       0       0       0       0       0       0       0       
      +0       0       0       0       0       0
  2779 ;;      Locals:         0       0       0       0       0       0       0       0       0       0       0       0       
      +0       0       0       0       0       0       0       0       0       0       0       0       0       0       0       
      +0       0       0       0       0       0
  2780 ;;      Temps:          0       0       0       0       0       0       0       0       0       0       0       0       
      +0       0       0       0       0       0       0       0       0       0       0       0       0       0       0       
      +0       0       0       0       0       0
  2781 ;;      Totals:         0       0       0       0       0       0       0       0       0       0       0       0       
      +0       0       0       0       0       0       0       0       0       0       0       0       0       0       0       
      +0       0       0       0       0       0
  2782 ;;Total ram usage:        0 bytes
  2783 ;; Hardware stack levels used: 1
  2784 ;; This function calls:
  2785 ;;		Nothing
  2786 ;; This function is called by:
  2787 ;;		_I2C1_BusReset
  2788 ;; This function uses a non-reentrant model
  2789 ;;
  2790                           
  2791                           	psect	text34
  2792  002A78                     __ptext34:
  2793                           	callstack 0
  2794  002A78                     i2_I2C1_InterruptsEnable:
  2795                           	callstack 120
  2796  002A78                     
  2797                           ;mcc_generated_files/i2c_host/src/i2c1.c: 448:     PIE7bits.I2C1IE = 1;
  2798  002A78  84A5               	bsf	165,2,c	;volatile
  2799                           
  2800                           ;mcc_generated_files/i2c_host/src/i2c1.c: 449:     PIE7bits.I2C1EIE = 1;
  2801  002A7A  86A5               	bsf	165,3,c	;volatile
  2802                           
  2803                           ;mcc_generated_files/i2c_host/src/i2c1.c: 450:     PIE7bits.I2C1RXIE = 1;
  2804  002A7C  80A5               	bsf	165,0,c	;volatile
  2805                           
  2806                           ;mcc_generated_files/i2c_host/src/i2c1.c: 451:     PIE7bits.I2C1TXIE = 1;
  2807  002A7E  82A5               	bsf	165,1,c	;volatile
  2808                           
  2809                           ;mcc_generated_files/i2c_host/src/i2c1.c: 453:     I2C1PIEbits.PCIE = 1;
  2810  002A80  0102               	movlb	2	; () banked
  2811  002A82  859B               	bsf	155,2,b	;volatile
  2812                           
  2813                           ;mcc_generated_files/i2c_host/src/i2c1.c: 454:     I2C1PIEbits.RSCIE = 1;
  2814  002A84  839B               	bsf	155,1,b	;volatile
  2815                           
  2816                           ;mcc_generated_files/i2c_host/src/i2c1.c: 455:     I2C1PIEbits.CNTIE = 1;
  2817  002A86  8F9B               	bsf	155,7,b	;volatile
  2818                           
  2819                           ;mcc_generated_files/i2c_host/src/i2c1.c: 456:     I2C1ERRbits.NACKIE = 1;
  2820  002A88  8197               	bsf	151,0,b	;volatile
  2821  002A8A                     
  2822                           ; BSR set to: 2
  2823  002A8A  0012               	return		;funcret
  2824  002A8C                     __end_ofi2_I2C1_InterruptsEnable:
  2825                           	callstack 0
  2826                           
  2827 ;; *************** function _I2C1_InterruptsDisable *****************
  2828 ;; Defined at:
  2829 ;;		line 459 in file "mcc_generated_files/i2c_host/src/i2c1.c"
  2830 ;; Parameters:    Size  Location     Type
  2831 ;;		None
  2832 ;; Auto vars:     Size  Location     Type
  2833 ;;		None
  2834 ;; Return value:  Size  Location     Type
  2835 ;;                  1    wreg      void 
  2836 ;; Registers used:
  2837 ;;		wreg, status,2
  2838 ;; Tracked objects:
  2839 ;;		On entry : 0/0
  2840 ;;		On exit  : 0/0
  2841 ;;		Unchanged: 0/0
  2842 ;; Data sizes:     COMRAM   BANK5   BANK6   BANK7   BANK8   BANK9  BANK10  BANK11  BANK12  BANK13  BANK14  BANK15  BANK1
      +6  BANK17  BANK18  BANK19  BANK20  BANK21  BANK22  BANK23  BANK24  BANK25  BANK26  BANK27  BANK28  BANK29  BANK30  BANK3
      +1  BANK32  BANK33  BANK34  BANK35  BANK36
  2843 ;;      Params:         0       0       0       0       0       0       0       0       0       0       0       0       
      +0       0       0       0       0       0       0       0       0       0       0       0       0       0       0       
      +0       0       0       0       0       0
  2844 ;;      Locals:         0       0       0       0       0       0       0       0       0       0       0       0       
      +0       0       0       0       0       0       0       0       0       0       0       0       0       0       0       
      +0       0       0       0       0       0
  2845 ;;      Temps:          0       0       0       0       0       0       0       0       0       0       0       0       
      +0       0       0       0       0       0       0       0       0       0       0       0       0       0       0       
      +0       0       0       0       0       0
  2846 ;;      Totals:         0       0       0       0       0       0       0       0       0       0       0       0       
      +0       0       0       0       0       0       0       0       0       0       0       0       0       0       0       
      +0       0       0       0       0       0
  2847 ;;Total ram usage:        0 bytes
  2848 ;; Hardware stack levels used: 1
  2849 ;; This function calls:
  2850 ;;		Nothing
  2851 ;; This function is called by:
  2852 ;;		_I2C1_BusReset
  2853 ;;		_I2C1_Deinitialize
  2854 ;; This function uses a non-reentrant model
  2855 ;;
  2856                           
  2857                           	psect	text35
  2858  002A8C                     __ptext35:
  2859                           	callstack 0
  2860  002A8C                     _I2C1_InterruptsDisable:
  2861                           	callstack 120
  2862  002A8C                     
  2863                           ;mcc_generated_files/i2c_host/src/i2c1.c: 461:     PIE7bits.I2C1IE = 0;
  2864  002A8C  94A5               	bcf	165,2,c	;volatile
  2865                           
  2866                           ;mcc_generated_files/i2c_host/src/i2c1.c: 462:     PIE7bits.I2C1EIE = 0;
  2867  002A8E  96A5               	bcf	165,3,c	;volatile
  2868                           
  2869                           ;mcc_generated_files/i2c_host/src/i2c1.c: 463:     PIE7bits.I2C1RXIE = 0;
  2870  002A90  90A5               	bcf	165,0,c	;volatile
  2871                           
  2872                           ;mcc_generated_files/i2c_host/src/i2c1.c: 464:     PIE7bits.I2C1TXIE = 0;
  2873  002A92  92A5               	bcf	165,1,c	;volatile
  2874  002A94                     
  2875                           ;mcc_generated_files/i2c_host/src/i2c1.c: 465:     I2C1PIE = 0x00;
  2876  002A94  0E00               	movlw	0
  2877  002A96  0102               	movlb	2	; () banked
  2878  002A98  6F9B               	movwf	155,b	;volatile
  2879                           
  2880                           ;mcc_generated_files/i2c_host/src/i2c1.c: 466:     I2C1ERR = 0x00;
  2881  002A9A  0E00               	movlw	0
  2882  002A9C  6F97               	movwf	151,b	;volatile
  2883  002A9E                     
  2884                           ; BSR set to: 2
  2885  002A9E  0012               	return		;funcret
  2886  002AA0                     __end_of_I2C1_InterruptsDisable:
  2887                           	callstack 0
  2888                           
  2889 ;; *************** function _I2C1_InterruptsClear *****************
  2890 ;; Defined at:
  2891 ;;		line 469 in file "mcc_generated_files/i2c_host/src/i2c1.c"
  2892 ;; Parameters:    Size  Location     Type
  2893 ;;		None
  2894 ;; Auto vars:     Size  Location     Type
  2895 ;;		None
  2896 ;; Return value:  Size  Location     Type
  2897 ;;                  1    wreg      void 
  2898 ;; Registers used:
  2899 ;;		wreg, status,2
  2900 ;; Tracked objects:
  2901 ;;		On entry : 0/0
  2902 ;;		On exit  : 0/0
  2903 ;;		Unchanged: 0/0
  2904 ;; Data sizes:     COMRAM   BANK5   BANK6   BANK7   BANK8   BANK9  BANK10  BANK11  BANK12  BANK13  BANK14  BANK15  BANK1
      +6  BANK17  BANK18  BANK19  BANK20  BANK21  BANK22  BANK23  BANK24  BANK25  BANK26  BANK27  BANK28  BANK29  BANK30  BANK3
      +1  BANK32  BANK33  BANK34  BANK35  BANK36
  2905 ;;      Params:         0       0       0       0       0       0       0       0       0       0       0       0       
      +0       0       0       0       0       0       0       0       0       0       0       0       0       0       0       
      +0       0       0       0       0       0
  2906 ;;      Locals:         0       0       0       0       0       0       0       0       0       0       0       0       
      +0       0       0       0       0       0       0       0       0       0       0       0       0       0       0       
      +0       0       0       0       0       0
  2907 ;;      Temps:          0       0       0       0       0       0       0       0       0       0       0       0       
      +0       0       0       0       0       0       0       0       0       0       0       0       0       0       0       
      +0       0       0       0       0       0
  2908 ;;      Totals:         0       0       0       0       0       0       0       0       0       0       0       0       
      +0       0       0       0       0       0       0       0       0       0       0       0       0       0       0       
      +0       0       0       0       0       0
  2909 ;;Total ram usage:        0 bytes
  2910 ;; Hardware stack levels used: 1
  2911 ;; This function calls:
  2912 ;;		Nothing
  2913 ;; This function is called by:
  2914 ;;		_I2C1_Close
  2915 ;;		_I2C1_BusReset
  2916 ;; This function uses a non-reentrant model
  2917 ;;
  2918                           
  2919                           	psect	text36
  2920  002B1A                     __ptext36:
  2921                           	callstack 0
  2922  002B1A                     _I2C1_InterruptsClear:
  2923                           	callstack 120
  2924  002B1A                     
  2925                           ;mcc_generated_files/i2c_host/src/i2c1.c: 471:     I2C1PIR = 0x00;
  2926  002B1A  0E00               	movlw	0
  2927  002B1C  0102               	movlb	2	; () banked
  2928  002B1E  6F9A               	movwf	154,b	;volatile
  2929  002B20                     
  2930                           ; BSR set to: 2
  2931  002B20  0012               	return		;funcret
  2932  002B22                     __end_of_I2C1_InterruptsClear:
  2933                           	callstack 0
  2934                           
  2935 ;; *************** function _I2C1_ErrorFlagsClear *****************
  2936 ;; Defined at:
  2937 ;;		line 474 in file "mcc_generated_files/i2c_host/src/i2c1.c"
  2938 ;; Parameters:    Size  Location     Type
  2939 ;;		None
  2940 ;; Auto vars:     Size  Location     Type
  2941 ;;		None
  2942 ;; Return value:  Size  Location     Type
  2943 ;;                  1    wreg      void 
  2944 ;; Registers used:
  2945 ;;		None
  2946 ;; Tracked objects:
  2947 ;;		On entry : 0/0
  2948 ;;		On exit  : 0/0
  2949 ;;		Unchanged: 0/0
  2950 ;; Data sizes:     COMRAM   BANK5   BANK6   BANK7   BANK8   BANK9  BANK10  BANK11  BANK12  BANK13  BANK14  BANK15  BANK1
      +6  BANK17  BANK18  BANK19  BANK20  BANK21  BANK22  BANK23  BANK24  BANK25  BANK26  BANK27  BANK28  BANK29  BANK30  BANK3
      +1  BANK32  BANK33  BANK34  BANK35  BANK36
  2951 ;;      Params:         0       0       0       0       0       0       0       0       0       0       0       0       
      +0       0       0       0       0       0       0       0       0       0       0       0       0       0       0       
      +0       0       0       0       0       0
  2952 ;;      Locals:         0       0       0       0       0       0       0       0       0       0       0       0       
      +0       0       0       0       0       0       0       0       0       0       0       0       0       0       0       
      +0       0       0       0       0       0
  2953 ;;      Temps:          0       0       0       0       0       0       0       0       0       0       0       0       
      +0       0       0       0       0       0       0       0       0       0       0       0       0       0       0       
      +0       0       0       0       0       0
  2954 ;;      Totals:         0       0       0       0       0       0       0       0       0       0       0       0       
      +0       0       0       0       0       0       0       0       0       0       0       0       0       0       0       
      +0       0       0       0       0       0
  2955 ;;Total ram usage:        0 bytes
  2956 ;; Hardware stack levels used: 1
  2957 ;; This function calls:
  2958 ;;		Nothing
  2959 ;; This function is called by:
  2960 ;;		_I2C1_Close
  2961 ;;		_I2C1_BusReset
  2962 ;; This function uses a non-reentrant model
  2963 ;;
  2964                           
  2965                           	psect	text37
  2966  002B06                     __ptext37:
  2967                           	callstack 0
  2968  002B06                     _I2C1_ErrorFlagsClear:
  2969                           	callstack 120
  2970  002B06                     
  2971                           ;mcc_generated_files/i2c_host/src/i2c1.c: 476:     I2C1ERRbits.BCLIF = 0;
  2972  002B06  0102               	movlb	2	; () banked
  2973  002B08  9B97               	bcf	151,5,b	;volatile
  2974                           
  2975                           ;mcc_generated_files/i2c_host/src/i2c1.c: 477:     I2C1ERRbits.BTOIF = 0;
  2976  002B0A  9D97               	bcf	151,6,b	;volatile
  2977                           
  2978                           ;mcc_generated_files/i2c_host/src/i2c1.c: 478:     I2C1ERRbits.NACKIF = 0;
  2979  002B0C  9997               	bcf	151,4,b	;volatile
  2980  002B0E                     
  2981                           ; BSR set to: 2
  2982  002B0E  0012               	return		;funcret
  2983  002B10                     __end_of_I2C1_ErrorFlagsClear:
  2984                           	callstack 0
  2985                           
  2986 ;; *************** function _I2C1_BufferClear *****************
  2987 ;; Defined at:
  2988 ;;		line 481 in file "mcc_generated_files/i2c_host/src/i2c1.c"
  2989 ;; Parameters:    Size  Location     Type
  2990 ;;		None
  2991 ;; Auto vars:     Size  Location     Type
  2992 ;;		None
  2993 ;; Return value:  Size  Location     Type
  2994 ;;                  1    wreg      void 
  2995 ;; Registers used:
  2996 ;;		wreg, status,2
  2997 ;; Tracked objects:
  2998 ;;		On entry : 0/0
  2999 ;;		On exit  : 0/0
  3000 ;;		Unchanged: 0/0
  3001 ;; Data sizes:     COMRAM   BANK5   BANK6   BANK7   BANK8   BANK9  BANK10  BANK11  BANK12  BANK13  BANK14  BANK15  BANK1
      +6  BANK17  BANK18  BANK19  BANK20  BANK21  BANK22  BANK23  BANK24  BANK25  BANK26  BANK27  BANK28  BANK29  BANK30  BANK3
      +1  BANK32  BANK33  BANK34  BANK35  BANK36
  3002 ;;      Params:         0       0       0       0       0       0       0       0       0       0       0       0       
      +0       0       0       0       0       0       0       0       0       0       0       0       0       0       0       
      +0       0       0       0       0       0
  3003 ;;      Locals:         0       0       0       0       0       0       0       0       0       0       0       0       
      +0       0       0       0       0       0       0       0       0       0       0       0       0       0       0       
      +0       0       0       0       0       0
  3004 ;;      Temps:          0       0       0       0       0       0       0       0       0       0       0       0       
      +0       0       0       0       0       0       0       0       0       0       0       0       0       0       0       
      +0       0       0       0       0       0
  3005 ;;      Totals:         0       0       0       0       0       0       0       0       0       0       0       0       
      +0       0       0       0       0       0       0       0       0       0       0       0       0       0       0       
      +0       0       0       0       0       0
  3006 ;;Total ram usage:        0 bytes
  3007 ;; Hardware stack levels used: 1
  3008 ;; This function calls:
  3009 ;;		Nothing
  3010 ;; This function is called by:
  3011 ;;		_I2C1_Close
  3012 ;;		_I2C1_BusReset
  3013 ;; This function uses a non-reentrant model
  3014 ;;
  3015                           
  3016                           	psect	text38
  3017  002B10                     __ptext38:
  3018                           	callstack 0
  3019  002B10                     _I2C1_BufferClear:
  3020                           	callstack 120
  3021  002B10                     
  3022                           ;mcc_generated_files/i2c_host/src/i2c1.c: 483:     I2C1STAT1 = 0x00;
  3023  002B10  0E00               	movlw	0
  3024  002B12  0102               	movlb	2	; () banked
  3025  002B14  6F99               	movwf	153,b	;volatile
  3026  002B16                     
  3027                           ; BSR set to: 2
  3028                           ;mcc_generated_files/i2c_host/src/i2c1.c: 484:     I2C1STAT1bits.CLRBF = 1;
  3029  002B16  8599               	bsf	153,2,b	;volatile
  3030  002B18                     
  3031                           ; BSR set to: 2
  3032  002B18  0012               	return		;funcret
  3033  002B1A                     __end_of_I2C1_BufferClear:
  3034                           	callstack 0
  3035                           
  3036                           ;
  3037                           ; Interrupt Vector Table @ 0x8
  3038                           ;
  3039                           
  3040                           	psect	ivt0x8
  3041  000008                     __pivt0x8:
  3042                           	callstack 0
  3043  000008                     ivt0x8_base:
  3044                           	callstack 0
  3045                           
  3046                           ; high-priority vector
  3047  000008  EF66  F013         	goto	_INTERRUPT_InterruptManager
  3048  000018                     	org	16
  3049                           
  3050                           ; low-priority vector
  3051  000018  00FF               	reset	
  3052                           
  3053                           	psect	text39
  3054  000000                     __ptext39:
  3055                           	callstack 0
  3056  000000                     
  3057                           	psect	rparam
  3058  0000                     
  3059                           	psect	idloc
  3060                           
  3061                           ;Config register IDLOC0 @ 0x200000
  3062                           ;	unspecified, using default values
  3063  200000                     	org	2097152
  3064  200000  0FFF               	dw	4095
  3065                           
  3066                           ;Config register IDLOC1 @ 0x200002
  3067                           ;	unspecified, using default values
  3068  200002                     	org	2097154
  3069  200002  0FFF               	dw	4095
  3070                           
  3071                           ;Config register IDLOC2 @ 0x200004
  3072                           ;	unspecified, using default values
  3073  200004                     	org	2097156
  3074  200004  0FFF               	dw	4095
  3075                           
  3076                           ;Config register IDLOC3 @ 0x200006
  3077                           ;	unspecified, using default values
  3078  200006                     	org	2097158
  3079  200006  0FFF               	dw	4095
  3080                           
  3081                           ;Config register IDLOC4 @ 0x200008
  3082                           ;	unspecified, using default values
  3083  200008                     	org	2097160
  3084  200008  0FFF               	dw	4095
  3085                           
  3086                           ;Config register IDLOC5 @ 0x20000A
  3087                           ;	unspecified, using default values
  3088  20000A                     	org	2097162
  3089  20000A  0FFF               	dw	4095
  3090                           
  3091                           ;Config register IDLOC6 @ 0x20000C
  3092                           ;	unspecified, using default values
  3093  20000C                     	org	2097164
  3094  20000C  0FFF               	dw	4095
  3095                           
  3096                           ;Config register IDLOC7 @ 0x20000E
  3097                           ;	unspecified, using default values
  3098  20000E                     	org	2097166
  3099  20000E  0FFF               	dw	4095
  3100                           
  3101                           ;Config register IDLOC8 @ 0x200010
  3102                           ;	unspecified, using default values
  3103  200010                     	org	2097168
  3104  200010  0FFF               	dw	4095
  3105                           
  3106                           ;Config register IDLOC9 @ 0x200012
  3107                           ;	unspecified, using default values
  3108  200012                     	org	2097170
  3109  200012  0FFF               	dw	4095
  3110                           
  3111                           ;Config register IDLOC10 @ 0x200014
  3112                           ;	unspecified, using default values
  3113  200014                     	org	2097172
  3114  200014  0FFF               	dw	4095
  3115                           
  3116                           ;Config register IDLOC11 @ 0x200016
  3117                           ;	unspecified, using default values
  3118  200016                     	org	2097174
  3119  200016  0FFF               	dw	4095
  3120                           
  3121                           ;Config register IDLOC12 @ 0x200018
  3122                           ;	unspecified, using default values
  3123  200018                     	org	2097176
  3124  200018  0FFF               	dw	4095
  3125                           
  3126                           ;Config register IDLOC13 @ 0x20001A
  3127                           ;	unspecified, using default values
  3128  20001A                     	org	2097178
  3129  20001A  0FFF               	dw	4095
  3130                           
  3131                           ;Config register IDLOC14 @ 0x20001C
  3132                           ;	unspecified, using default values
  3133  20001C                     	org	2097180
  3134  20001C  0FFF               	dw	4095
  3135                           
  3136                           ;Config register IDLOC15 @ 0x20001E
  3137                           ;	unspecified, using default values
  3138  20001E                     	org	2097182
  3139  20001E  0FFF               	dw	4095
  3140                           
  3141                           ;Config register IDLOC16 @ 0x200020
  3142                           ;	unspecified, using default values
  3143  200020                     	org	2097184
  3144  200020  0FFF               	dw	4095
  3145                           
  3146                           ;Config register IDLOC17 @ 0x200022
  3147                           ;	unspecified, using default values
  3148  200022                     	org	2097186
  3149  200022  0FFF               	dw	4095
  3150                           
  3151                           ;Config register IDLOC18 @ 0x200024
  3152                           ;	unspecified, using default values
  3153  200024                     	org	2097188
  3154  200024  0FFF               	dw	4095
  3155                           
  3156                           ;Config register IDLOC19 @ 0x200026
  3157                           ;	unspecified, using default values
  3158  200026                     	org	2097190
  3159  200026  0FFF               	dw	4095
  3160                           
  3161                           ;Config register IDLOC20 @ 0x200028
  3162                           ;	unspecified, using default values
  3163  200028                     	org	2097192
  3164  200028  0FFF               	dw	4095
  3165                           
  3166                           ;Config register IDLOC21 @ 0x20002A
  3167                           ;	unspecified, using default values
  3168  20002A                     	org	2097194
  3169  20002A  0FFF               	dw	4095
  3170                           
  3171                           ;Config register IDLOC22 @ 0x20002C
  3172                           ;	unspecified, using default values
  3173  20002C                     	org	2097196
  3174  20002C  0FFF               	dw	4095
  3175                           
  3176                           ;Config register IDLOC23 @ 0x20002E
  3177                           ;	unspecified, using default values
  3178  20002E                     	org	2097198
  3179  20002E  0FFF               	dw	4095
  3180                           
  3181                           ;Config register IDLOC24 @ 0x200030
  3182                           ;	unspecified, using default values
  3183  200030                     	org	2097200
  3184  200030  0FFF               	dw	4095
  3185                           
  3186                           ;Config register IDLOC25 @ 0x200032
  3187                           ;	unspecified, using default values
  3188  200032                     	org	2097202
  3189  200032  0FFF               	dw	4095
  3190                           
  3191                           ;Config register IDLOC26 @ 0x200034
  3192                           ;	unspecified, using default values
  3193  200034                     	org	2097204
  3194  200034  0FFF               	dw	4095
  3195                           
  3196                           ;Config register IDLOC27 @ 0x200036
  3197                           ;	unspecified, using default values
  3198  200036                     	org	2097206
  3199  200036  0FFF               	dw	4095
  3200                           
  3201                           ;Config register IDLOC28 @ 0x200038
  3202                           ;	unspecified, using default values
  3203  200038                     	org	2097208
  3204  200038  0FFF               	dw	4095
  3205                           
  3206                           ;Config register IDLOC29 @ 0x20003A
  3207                           ;	unspecified, using default values
  3208  20003A                     	org	2097210
  3209  20003A  0FFF               	dw	4095
  3210                           
  3211                           ;Config register IDLOC30 @ 0x20003C
  3212                           ;	unspecified, using default values
  3213  20003C                     	org	2097212
  3214  20003C  0FFF               	dw	4095
  3215                           
  3216                           ;Config register IDLOC31 @ 0x20003E
  3217                           ;	unspecified, using default values
  3218  20003E                     	org	2097214
  3219  20003E  0FFF               	dw	4095
  3220                           
  3221                           	psect	config
  3222                           
  3223                           ;Config register CONFIG1 @ 0x300000
  3224                           ;	External Oscillator Selection
  3225                           ;	FEXTOSC = ECH, EC (external clock) above 8 MHz
  3226                           ;	Reset Oscillator Selection
  3227                           ;	RSTOSC = EXTOSC, EXTOSC operating per FEXTOSC bits (device manufacturing default)
  3228  300000                     	org	3145728
  3229  300000  FF                 	db	255
  3230                           
  3231                           ;Config register CONFIG2 @ 0x300001
  3232                           ;	Clock out Enable bit
  3233                           ;	CLKOUTEN = OFF, CLKOUT function is disabled
  3234                           ;	PRLOCKED One-Way Set Enable bit
  3235                           ;	PR1WAY = ON, PRLOCKED bit can be cleared and set only once
  3236                           ;	Clock Switch Enable bit
  3237                           ;	CSWEN = ON, Writing to NOSC and NDIV is allowed
  3238                           ;	Fail-Safe Clock Monitor Enable bit
  3239                           ;	FCMEN = ON, Fail-Safe Clock Monitor enabled
  3240  300001                     	org	3145729
  3241  300001  FF                 	db	255
  3242                           
  3243                           ;Config register CONFIG3 @ 0x300002
  3244                           ;	MCLR Enable bit
  3245                           ;	MCLRE = EXTMCLR, If LVP = 0, MCLR pin is MCLR; If LVP = 1, RE3 pin function is MCLR
  3246                           ;	Power-up timer selection bits
  3247                           ;	PWRTS = PWRT_OFF, PWRT is disabled
  3248                           ;	Multi-vector enable bit
  3249                           ;	MVECEN = OFF, Interrupt contoller does not use vector table to prioritze interrupts
  3250                           ;	IVTLOCK bit One-way set enable bit
  3251                           ;	IVT1WAY = ON, IVTLOCKED bit can be cleared and set only once
  3252                           ;	Low Power BOR Enable bit
  3253                           ;	LPBOREN = OFF, Low-Power BOR disabled
  3254                           ;	Brown-out Reset Enable bits
  3255                           ;	BOREN = SBORDIS, Brown-out Reset enabled , SBOREN bit is ignored
  3256  300002                     	org	3145730
  3257  300002  F7                 	db	247
  3258                           
  3259                           ;Config register CONFIG4 @ 0x300003
  3260                           ;	Brown-out Reset Voltage Selection bits
  3261                           ;	BORV = VBOR_1P9, Brown-out Reset Voltage (VBOR) set to 1.9V
  3262                           ;	ZCD Disable bit
  3263                           ;	ZCD = OFF, ZCD module is disabled. ZCD can be enabled by setting the ZCDSEN bit of ZCD
      +                          CON
  3264                           ;	PPSLOCK bit One-Way Set Enable bit
  3265                           ;	PPS1WAY = ON, PPSLOCKED bit can be cleared and set only once; PPS registers remain loc
      +                          ked after one clear/set cycle
  3266                           ;	Stack Full/Underflow Reset Enable bit
  3267                           ;	STVREN = ON, Stack full/underflow will cause Reset
  3268                           ;	Low Voltage Programming Enable bit
  3269                           ;	LVP = ON, Low voltage programming enabled. MCLR/VPP pin function is MCLR. MCLRE config
      +                          uration bit is ignored
  3270                           ;	Extended Instruction Set Enable bit
  3271                           ;	XINST = OFF, Extended Instruction Set and Indexed Addressing Mode disabled
  3272  300003                     	org	3145731
  3273  300003  FF                 	db	255
  3274                           
  3275                           ;Config register CONFIG5 @ 0x300004
  3276                           ;	WDT Period selection bits
  3277                           ;	WDTCPS = WDTCPS_31, Divider ratio 1:65536; software control of WDTPS
  3278                           ;	WDT operating mode
  3279                           ;	WDTE = OFF, WDT Disabled; SWDTEN is ignored
  3280  300004                     	org	3145732
  3281  300004  9F                 	db	159
  3282                           
  3283                           ;Config register CONFIG6 @ 0x300005
  3284                           ;	WDT Window Select bits
  3285                           ;	WDTCWS = WDTCWS_7, window always open (100%); software control; keyed access not requi
      +                          red
  3286                           ;	WDT input clock selector
  3287                           ;	WDTCCS = SC, Software Control
  3288  300005                     	org	3145733
  3289  300005  FF                 	db	255
  3290                           
  3291                           ;Config register CONFIG7 @ 0x300006
  3292                           ;	Boot Block Size selection bits
  3293                           ;	BBSIZE = BBSIZE_512, Boot Block size is 512 words
  3294                           ;	Boot Block enable bit
  3295                           ;	BBEN = OFF, Boot block disabled
  3296                           ;	Storage Area Flash enable bit
  3297                           ;	SAFEN = OFF, SAF disabled
  3298                           ;	Background Debugger
  3299                           ;	DEBUG = OFF, Background Debugger disabled
  3300  300006                     	org	3145734
  3301  300006  FF                 	db	255
  3302                           
  3303                           ;Config register CONFIG8 @ 0x300007
  3304                           ;	Boot Block Write Protection bit
  3305                           ;	WRTB = OFF, Boot Block not Write protected
  3306                           ;	Configuration Register Write Protection bit
  3307                           ;	WRTC = OFF, Configuration registers not Write protected
  3308                           ;	Data EEPROM Write Protection bit
  3309                           ;	WRTD = OFF, Data EEPROM not Write protected
  3310                           ;	SAF Write protection bit
  3311                           ;	WRTSAF = OFF, SAF not Write Protected
  3312                           ;	Application Block write protection bit
  3313                           ;	WRTAPP = OFF, Application Block not write protected
  3314  300007                     	org	3145735
  3315  300007  FF                 	db	255
  3316                           
  3317                           ; Padding undefined space
  3318  300008                     	org	3145736
  3319  300008  FF                 	db	255
  3320                           
  3321                           ;Config register CONFIG10 @ 0x300009
  3322                           ;	PFM and Data EEPROM Code Protection bit
  3323                           ;	CP = OFF, PFM and Data EEPROM code protection disabled
  3324  300009                     	org	3145737
  3325  300009  FF                 	db	255
  3326                           tosu	equ	0x4FF
  3327                           tosh	equ	0x4FE
  3328                           tosl	equ	0x4FD
  3329                           stkptr	equ	0x4FC
  3330                           pclatu	equ	0x4FB
  3331                           pclath	equ	0x4FA
  3332                           pcl	equ	0x4F9
  3333                           tblptru	equ	0x4F8
  3334                           tblptrh	equ	0x4F7
  3335                           tblptrl	equ	0x4F6
  3336                           tablat	equ	0x4F5
  3337                           prodh	equ	0x4F4
  3338                           prodl	equ	0x4F3
  3339                           indf0	equ	0x4EF
  3340                           postinc0	equ	0x4EE
  3341                           postdec0	equ	0x4ED
  3342                           preinc0	equ	0x4EC
  3343                           plusw0	equ	0x4EB
  3344                           fsr0h	equ	0x4EA
  3345                           fsr0l	equ	0x4E9
  3346                           wreg	equ	0x4E8
  3347                           indf1	equ	0x4E7
  3348                           postinc1	equ	0x4E6
  3349                           postdec1	equ	0x4E5
  3350                           preinc1	equ	0x4E4
  3351                           plusw1	equ	0x4E3
  3352                           fsr1h	equ	0x4E2
  3353                           fsr1l	equ	0x4E1
  3354                           bsr	equ	0x4E0
  3355                           indf2	equ	0x4DF
  3356                           postinc2	equ	0x4DE
  3357                           postdec2	equ	0x4DD
  3358                           preinc2	equ	0x4DC
  3359                           plusw2	equ	0x4DB
  3360                           fsr2h	equ	0x4DA
  3361                           fsr2l	equ	0x4D9
  3362                           status	equ	0x4D8

Data Sizes:
    Strings     0
    Constant    30
    Data        0
    BSS         25
    Persistent  0
    Stack       0

Auto Spaces:
    Space          Size  Autos    Used
    COMRAM           95      6      31
    BANK5           160      0       0
    BANK6           256      0       0
    BANK7           256      0       0
    BANK8           256      0       0
    BANK9           256      0       0
    BANK10          256      0       0
    BANK11          256      0       0
    BANK12          256      0       0
    BANK13          256      0       0
    BANK14          256      0       0
    BANK15          256      0       0
    BANK16          256      0       0
    BANK17          256      0       0
    BANK18          256      0       0
    BANK19          256      0       0
    BANK20          256      0       0
    BANK21          256      0       0
    BANK22          256      0       0
    BANK23          256      0       0
    BANK24          256      0       0
    BANK25          256      0       0
    BANK26          256      0       0
    BANK27          256      0       0
    BANK28          256      0       0
    BANK29          256      0       0
    BANK30          256      0       0
    BANK31          256      0       0
    BANK32          256      0       0
    BANK33          256      0       0
    BANK34          256      0       0
    BANK35          256      0       0
    BANK36          256      0       0

Pointer List with Targets:

    S51$2$1	PTR unsigned char  size(2) Largest target is 3
		 -> setChannelValue@data(COMRAM[3]), 

    S51$3$1	PTR unsigned char  size(2) Largest target is 0

    S51$4$3	PTR unsigned char  size(2) Largest target is 0

    S51$4$1	PTR unsigned char  size(2) Largest target is 0

    Absolute function$0	PTR struct . size(2) Largest target is 0

    S51$8$0	PTR FTN()void  size(3) Largest target is 1
		 -> I2C1_DefaultCallback(), 

    INT2_SetInterruptHandler@InterruptHandler	PTR FTN()void  size(3) Largest target is 1
		 -> INT2_DefaultInterruptHandler(), 

    INT2_InterruptHandler	PTR FTN()void  size(3) Largest target is 1
		 -> INT2_DefaultInterruptHandler(), Absolute function(), 

    INT1_SetInterruptHandler@InterruptHandler	PTR FTN()void  size(3) Largest target is 1
		 -> INT1_DefaultInterruptHandler(), 

    INT1_InterruptHandler	PTR FTN()void  size(3) Largest target is 1
		 -> INT1_DefaultInterruptHandler(), Absolute function(), 

    INT0_SetInterruptHandler@InterruptHandler	PTR FTN()void  size(3) Largest target is 1
		 -> INT0_DefaultInterruptHandler(), 

    INT0_InterruptHandler	PTR FTN()void  size(3) Largest target is 1
		 -> INT0_DefaultInterruptHandler(), Absolute function(), 

    I2C1_Callback	PTR FTN()void  size(3) Largest target is 1
		 -> I2C1_DefaultCallback(), Absolute function(), 

    I2C1_CallbackRegister@callbackHandler	PTR FTN()void  size(3) Largest target is 1
		 -> I2C1_DefaultCallback(), 

    S140$readPtr	PTR unsigned char  size(2) Largest target is 0
		 -> NULL(NULL[0]), 

    i2c1Status.readPtr	PTR unsigned char  size(2) Largest target is 0
		 -> NULL(NULL[0]), 

    S140$writePtr	PTR unsigned char  size(2) Largest target is 3
		 -> setChannelValue@data(COMRAM[3]), NULL(NULL[0]), 

    i2c1Status.writePtr	PTR unsigned char  size(2) Largest target is 3
		 -> setChannelValue@data(COMRAM[3]), NULL(NULL[0]), 

    S51$Tasks	PTR FTN()void  size(3) Largest target is 1
		 -> Absolute function(), 

    I2C1_Host.Tasks	PTR FTN()void  size(3) Largest target is 1
		 -> Absolute function(), 

    S51$CallbackRegister	PTR FTN(PTR FTN()void ,)void  size(3) Largest target is 1
		 -> I2C1_CallbackRegister(), 

    I2C1_Host.CallbackRegister	PTR FTN(PTR FTN()void ,)void  size(3) Largest target is 1
		 -> I2C1_CallbackRegister(), 

    S51$IsBusy	PTR FTN()_Bool  size(3) Largest target is 1
		 -> I2C1_IsBusy(), 

    I2C1_Host.IsBusy	PTR FTN()_Bool  size(3) Largest target is 1
		 -> I2C1_IsBusy(), 

    S51$ErrorGet	PTR FTN()enum E16672 size(3) Largest target is 1
		 -> I2C1_ErrorGet(), 

    I2C1_Host.ErrorGet	PTR FTN()enum E16672 size(3) Largest target is 1
		 -> I2C1_ErrorGet(), 

    S51$TransferSetup	PTR FTN(PTR struct .,unsigned long ,)_Bool  size(3) Largest target is 1
		 -> Absolute function(), 

    I2C1_Host.TransferSetup	PTR FTN(PTR struct .,unsigned long ,)_Bool  size(3) Largest target is 1
		 -> Absolute function(), 

    S51$WriteRead	PTR FTN(unsigned short ,PTR unsigned char ,unsigned int ,PTR unsigned char ,unsigned int ,)_Bool  size(3) Largest target is 1
		 -> I2C1_WriteRead(), 

    I2C1_Host.WriteRead	PTR FTN(unsigned short ,PTR unsigned char ,unsigned int ,PTR unsigned char ,unsigned int ,)_Bool  size(3) Largest target is 1
		 -> I2C1_WriteRead(), 

    S51$Read	PTR FTN(unsigned short ,PTR unsigned char ,unsigned int ,)_Bool  size(3) Largest target is 1
		 -> I2C1_Read(), 

    I2C1_Host.Read	PTR FTN(unsigned short ,PTR unsigned char ,unsigned int ,)_Bool  size(3) Largest target is 1
		 -> I2C1_Read(), 

    S51$Write	PTR FTN(unsigned short ,PTR unsigned char ,unsigned int ,)_Bool  size(3) Largest target is 1
		 -> I2C1_Write(), 

    I2C1_Host.Write	PTR FTN(unsigned short ,PTR unsigned char ,unsigned int ,)_Bool  size(3) Largest target is 1
		 -> I2C1_Write(), 

    S51$Deinitialize	PTR FTN()void  size(3) Largest target is 1
		 -> I2C1_Deinitialize(), 

    I2C1_Host.Deinitialize	PTR FTN()void  size(3) Largest target is 1
		 -> I2C1_Deinitialize(), 

    S51$Initialize	PTR FTN()void  size(3) Largest target is 1
		 -> I2C1_Initialize(), 

    I2C1_Host.Initialize	PTR FTN()void  size(3) Largest target is 1
		 -> I2C1_Initialize(), 


Critical Paths under _main in COMRAM

    _INTERRUPT_Initialize->_INT0_SetInterruptHandler
    _INTERRUPT_Initialize->_INT1_SetInterruptHandler
    _INTERRUPT_Initialize->_INT2_SetInterruptHandler
    _I2C1_Initialize->_I2C1_CallbackRegister

Critical Paths under _INTERRUPT_InterruptManager in COMRAM

    _I2C1_TX_ISR->_I2C1_DataTransmit
    _I2C1_ReadStart->_I2C1_AddrTransmit
    _I2C1_ReadStart->_I2C1_CounterSet
    _I2C1_StopSend->_I2C1_CounterSet
    _I2C1_StopSend->_I2C1_DataTransmit

Critical Paths under _main in BANK5

    None.

Critical Paths under _INTERRUPT_InterruptManager in BANK5

    None.

Critical Paths under _main in BANK6

    None.

Critical Paths under _INTERRUPT_InterruptManager in BANK6

    None.

Critical Paths under _main in BANK7

    None.

Critical Paths under _INTERRUPT_InterruptManager in BANK7

    None.

Critical Paths under _main in BANK8

    None.

Critical Paths under _INTERRUPT_InterruptManager in BANK8

    None.

Critical Paths under _main in BANK9

    None.

Critical Paths under _INTERRUPT_InterruptManager in BANK9

    None.

Critical Paths under _main in BANK10

    None.

Critical Paths under _INTERRUPT_InterruptManager in BANK10

    None.

Critical Paths under _main in BANK11

    None.

Critical Paths under _INTERRUPT_InterruptManager in BANK11

    None.

Critical Paths under _main in BANK12

    None.

Critical Paths under _INTERRUPT_InterruptManager in BANK12

    None.

Critical Paths under _main in BANK13

    None.

Critical Paths under _INTERRUPT_InterruptManager in BANK13

    None.

Critical Paths under _main in BANK14

    None.

Critical Paths under _INTERRUPT_InterruptManager in BANK14

    None.

Critical Paths under _main in BANK15

    None.

Critical Paths under _INTERRUPT_InterruptManager in BANK15

    None.

Critical Paths under _main in BANK16

    None.

Critical Paths under _INTERRUPT_InterruptManager in BANK16

    None.

Critical Paths under _main in BANK17

    None.

Critical Paths under _INTERRUPT_InterruptManager in BANK17

    None.

Critical Paths under _main in BANK18

    None.

Critical Paths under _INTERRUPT_InterruptManager in BANK18

    None.

Critical Paths under _main in BANK19

    None.

Critical Paths under _INTERRUPT_InterruptManager in BANK19

    None.

Critical Paths under _main in BANK20

    None.

Critical Paths under _INTERRUPT_InterruptManager in BANK20

    None.

Critical Paths under _main in BANK21

    None.

Critical Paths under _INTERRUPT_InterruptManager in BANK21

    None.

Critical Paths under _main in BANK22

    None.

Critical Paths under _INTERRUPT_InterruptManager in BANK22

    None.

Critical Paths under _main in BANK23

    None.

Critical Paths under _INTERRUPT_InterruptManager in BANK23

    None.

Critical Paths under _main in BANK24

    None.

Critical Paths under _INTERRUPT_InterruptManager in BANK24

    None.

Critical Paths under _main in BANK25

    None.

Critical Paths under _INTERRUPT_InterruptManager in BANK25

    None.

Critical Paths under _main in BANK26

    None.

Critical Paths under _INTERRUPT_InterruptManager in BANK26

    None.

Critical Paths under _main in BANK27

    None.

Critical Paths under _INTERRUPT_InterruptManager in BANK27

    None.

Critical Paths under _main in BANK28

    None.

Critical Paths under _INTERRUPT_InterruptManager in BANK28

    None.

Critical Paths under _main in BANK29

    None.

Critical Paths under _INTERRUPT_InterruptManager in BANK29

    None.

Critical Paths under _main in BANK30

    None.

Critical Paths under _INTERRUPT_InterruptManager in BANK30

    None.

Critical Paths under _main in BANK31

    None.

Critical Paths under _INTERRUPT_InterruptManager in BANK31

    None.

Critical Paths under _main in BANK32

    None.

Critical Paths under _INTERRUPT_InterruptManager in BANK32

    None.

Critical Paths under _main in BANK33

    None.

Critical Paths under _INTERRUPT_InterruptManager in BANK33

    None.

Critical Paths under _main in BANK34

    None.

Critical Paths under _INTERRUPT_InterruptManager in BANK34

    None.

Critical Paths under _main in BANK35

    None.

Critical Paths under _INTERRUPT_InterruptManager in BANK35

    None.

Critical Paths under _main in BANK36

    None.

Critical Paths under _INTERRUPT_InterruptManager in BANK36

    None.

Call Graph Tables:

 ---------------------------------------------------------------------------------
 (Depth) Function   	        Calls       Base Space   Used Autos Params    Refs
 ---------------------------------------------------------------------------------
 (0) _main                                                 0     0      0     490
                  _SYSTEM_Initialize
 ---------------------------------------------------------------------------------
 (1) _SYSTEM_Initialize                                    0     0      0     490
                   _CLOCK_Initialize
                    _I2C1_Initialize
               _INTERRUPT_Initialize
             _PIN_MANAGER_Initialize
 ---------------------------------------------------------------------------------
 (2) _PIN_MANAGER_Initialize                               0     0      0       0
 ---------------------------------------------------------------------------------
 (2) _INTERRUPT_Initialize                                 0     0      0     294
           _INT0_SetInterruptHandler
           _INT1_SetInterruptHandler
           _INT2_SetInterruptHandler
 ---------------------------------------------------------------------------------
 (3) _INT2_SetInterruptHandler                             3     0      3      98
                                              3 COMRAM     3     0      3
 ---------------------------------------------------------------------------------
 (3) _INT1_SetInterruptHandler                             3     0      3      98
                                              3 COMRAM     3     0      3
 ---------------------------------------------------------------------------------
 (3) _INT0_SetInterruptHandler                             3     0      3      98
                                              3 COMRAM     3     0      3
 ---------------------------------------------------------------------------------
 (2) _I2C1_Initialize                                      0     0      0     196
              _I2C1_CallbackRegister
              _I2C1_InterruptsEnable
 ---------------------------------------------------------------------------------
 (3) _I2C1_InterruptsEnable                                0     0      0       0
 ---------------------------------------------------------------------------------
 (3) _I2C1_CallbackRegister                                3     0      3     196
                                              3 COMRAM     3     0      3
 ---------------------------------------------------------------------------------
 (2) _CLOCK_Initialize                                     0     0      0       0
 ---------------------------------------------------------------------------------
 Estimated maximum stack depth 3
 ---------------------------------------------------------------------------------
 (Depth) Function   	        Calls       Base Space   Used Autos Params    Refs
 ---------------------------------------------------------------------------------
 (4) _INTERRUPT_InterruptManager                           2     2      0     105
                                              1 COMRAM     2     2      0
                     _I2C1_ERROR_ISR
                           _I2C1_ISR
                        _I2C1_RX_ISR
                        _I2C1_TX_ISR
                    _PIN_MANAGER_IOC
 ---------------------------------------------------------------------------------
 (5) _PIN_MANAGER_IOC                                      0     0      0       0
 ---------------------------------------------------------------------------------
 (5) _I2C1_TX_ISR                                          0     0      0      15
                  _I2C1_DataTransmit
 ---------------------------------------------------------------------------------
 (5) _I2C1_RX_ISR                                          0     0      0       0
                   _I2C1_DataReceive
 ---------------------------------------------------------------------------------
 (6) _I2C1_DataReceive                                     0     0      0       0
 ---------------------------------------------------------------------------------
 (5) _I2C1_ISR                                             0     0      0      60
                         _I2C1_Close
                     _I2C1_ReadStart
                _I2C1_RestartDisable
                      _I2C1_StopSend
 ---------------------------------------------------------------------------------
 (6) _I2C1_ReadStart                                       0     0      0      30
                  _I2C1_AddrTransmit
                    _I2C1_CounterSet
                     _I2C1_StartSend
 ---------------------------------------------------------------------------------
 (7) _I2C1_StartSend                                       0     0      0       0
 ---------------------------------------------------------------------------------
 (7) _I2C1_AddrTransmit                                    1     1      0      15
                                              0 COMRAM     1     1      0
 ---------------------------------------------------------------------------------
 (6) _I2C1_Close                                           0     0      0       0
                   _I2C1_BufferClear
               _I2C1_ErrorFlagsClear
               _I2C1_InterruptsClear
 ---------------------------------------------------------------------------------
 (5) _I2C1_ERROR_ISR                                       0     0      0      30
                   Absolute function *
                      _I2C1_BusReset
               _I2C1_DefaultCallback *
                        _I2C1_IsAddr
                      _I2C1_IsBusCol
                  _I2C1_IsBusTimeOut
                        _I2C1_IsData
                        _I2C1_IsNack
                      _I2C1_StopSend
 ---------------------------------------------------------------------------------
 (6) _I2C1_StopSend                                        0     0      0      30
                    _I2C1_CounterGet
                    _I2C1_CounterSet
                  _I2C1_DataTransmit
                _I2C1_RestartDisable
 ---------------------------------------------------------------------------------
 (7) _I2C1_RestartDisable                                  0     0      0       0
 ---------------------------------------------------------------------------------
 (6) _I2C1_DataTransmit                                    1     1      0      15
                                              0 COMRAM     1     1      0
 ---------------------------------------------------------------------------------
 (7) _I2C1_CounterSet                                      1     1      0      15
                                              0 COMRAM     1     1      0
 ---------------------------------------------------------------------------------
 (7) _I2C1_CounterGet                                      0     0      0       0
 ---------------------------------------------------------------------------------
 (6) _I2C1_IsNack                                          0     0      0       0
 ---------------------------------------------------------------------------------
 (6) _I2C1_IsData                                          0     0      0       0
 ---------------------------------------------------------------------------------
 (6) _I2C1_IsBusTimeOut                                    0     0      0       0
 ---------------------------------------------------------------------------------
 (6) _I2C1_IsBusCol                                        0     0      0       0
 ---------------------------------------------------------------------------------
 (6) _I2C1_IsAddr                                          0     0      0       0
 ---------------------------------------------------------------------------------
 (6) _I2C1_DefaultCallback                                 0     0      0       0
 ---------------------------------------------------------------------------------
 (6) _I2C1_BusReset                                        0     0      0       0
                   _I2C1_BufferClear
               _I2C1_ErrorFlagsClear
               _I2C1_InterruptsClear
             _I2C1_InterruptsDisable
            i2_I2C1_InterruptsEnable
 ---------------------------------------------------------------------------------
 (7) i2_I2C1_InterruptsEnable                              0     0      0       0
 ---------------------------------------------------------------------------------
 (7) _I2C1_InterruptsDisable                               0     0      0       0
 ---------------------------------------------------------------------------------
 (7) _I2C1_InterruptsClear                                 0     0      0       0
 ---------------------------------------------------------------------------------
 (7) _I2C1_ErrorFlagsClear                                 0     0      0       0
 ---------------------------------------------------------------------------------
 (7) _I2C1_BufferClear                                     0     0      0       0
 ---------------------------------------------------------------------------------
 (6) Absolute function(Fake)                               0     0      0       0
 ---------------------------------------------------------------------------------
 Estimated maximum stack depth 7
 ---------------------------------------------------------------------------------

 Call Graph Graphs:

 _main (ROOT)
   _SYSTEM_Initialize
     _CLOCK_Initialize
     _I2C1_Initialize
       _I2C1_CallbackRegister
       _I2C1_InterruptsEnable
     _INTERRUPT_Initialize
       _INT0_SetInterruptHandler
       _INT1_SetInterruptHandler
       _INT2_SetInterruptHandler
     _PIN_MANAGER_Initialize

 _INTERRUPT_InterruptManager (ROOT)
   _I2C1_ERROR_ISR
     Absolute function(Fake) *
     _I2C1_BusReset *
       _I2C1_BufferClear
       _I2C1_ErrorFlagsClear
       _I2C1_InterruptsClear
       _I2C1_InterruptsDisable
       i2_I2C1_InterruptsEnable
     _I2C1_DefaultCallback *
     _I2C1_IsAddr *
     _I2C1_IsBusCol *
     _I2C1_IsBusTimeOut *
     _I2C1_IsData *
     _I2C1_IsNack *
     _I2C1_StopSend *
       _I2C1_CounterGet
       _I2C1_CounterSet
       _I2C1_DataTransmit
       _I2C1_RestartDisable
   _I2C1_ISR
     _I2C1_Close
       _I2C1_BufferClear
       _I2C1_ErrorFlagsClear
       _I2C1_InterruptsClear
     _I2C1_ReadStart
       _I2C1_AddrTransmit
       _I2C1_CounterSet
       _I2C1_StartSend
     _I2C1_RestartDisable
     _I2C1_StopSend
   _I2C1_RX_ISR
     _I2C1_DataReceive
   _I2C1_TX_ISR
     _I2C1_DataTransmit
   _PIN_MANAGER_IOC

 Address spaces:
Name               Size   Autos  Total    Cost      Usage
BIGRAM            1FFF      0       0      70        0.0%
EEDATA             400      0       0       0        0.0%
BITBIGSFRhhlll     163      0       0      81        0.0%
BITBIGSFRlllhhh    161      0       0      87        0.0%
BITBIGSFR_1        100      0       0      69        0.0%
BITBANK36          100      0       0      67        0.0%
BANK36             100      0       0      68        0.0%
BITBANK35          100      0       0      65        0.0%
BANK35             100      0       0      66        0.0%
BITBANK34          100      0       0      63        0.0%
BANK34             100      0       0      64        0.0%
BITBANK33          100      0       0      60        0.0%
BANK33             100      0       0      61        0.0%
BITBANK32          100      0       0      58        0.0%
BANK32             100      0       0      59        0.0%
BITBANK31          100      0       0      56        0.0%
BANK31             100      0       0      57        0.0%
BITBANK30          100      0       0      54        0.0%
BANK30             100      0       0      55        0.0%
BITBANK29          100      0       0      52        0.0%
BANK29             100      0       0      53        0.0%
BITBANK28          100      0       0      50        0.0%
BANK28             100      0       0      51        0.0%
BITBANK27          100      0       0      48        0.0%
BANK27             100      0       0      49        0.0%
BITBANK26          100      0       0      46        0.0%
BANK26             100      0       0      47        0.0%
BITBANK25          100      0       0      44        0.0%
BANK25             100      0       0      45        0.0%
BITBANK24          100      0       0      42        0.0%
BANK24             100      0       0      43        0.0%
BITBANK23          100      0       0      40        0.0%
BANK23             100      0       0      41        0.0%
BITBANK22          100      0       0      38        0.0%
BANK22             100      0       0      39        0.0%
BITBANK21          100      0       0      36        0.0%
BANK21             100      0       0      37        0.0%
BITBANK20          100      0       0      34        0.0%
BANK20             100      0       0      35        0.0%
BITBANK19          100      0       0      32        0.0%
BANK19             100      0       0      33        0.0%
BITBANK18          100      0       0      30        0.0%
BANK18             100      0       0      31        0.0%
BITBANK17          100      0       0      28        0.0%
BANK17             100      0       0      29        0.0%
BITBANK16          100      0       0      26        0.0%
BANK16             100      0       0      27        0.0%
BITBANK15          100      0       0      24        0.0%
BANK15             100      0       0      25        0.0%
BITBANK14          100      0       0      22        0.0%
BANK14             100      0       0      23        0.0%
BITBANK13          100      0       0      20        0.0%
BANK13             100      0       0      21        0.0%
BITBANK12          100      0       0      18        0.0%
BANK12             100      0       0      19        0.0%
BITBANK11          100      0       0      16        0.0%
BANK11             100      0       0      17        0.0%
BITBANK10          100      0       0      14        0.0%
BANK10             100      0       0      15        0.0%
BITBANK9           100      0       0      12        0.0%
BANK9              100      0       0      13        0.0%
BITBANK8           100      0       0      10        0.0%
BANK8              100      0       0      11        0.0%
BITBANK7           100      0       0       8        0.0%
BANK7              100      0       0       9        0.0%
BITBANK6           100      0       0       6        0.0%
BANK6              100      0       0       7        0.0%
BITBIGSFRllll       AC      0       0      90        0.0%
BITBANK5            A0      0       0       4        0.0%
BANK5               A0      0       0       5        0.0%
BITBIGSFRhhllhh     76      0       0      79        0.0%
BITCOMRAM           5F      0       0       0        0.0%
COMRAM              5F      6      1F       1       32.6%
BITBIGSFRlllhhh     59      0       0      86        0.0%
BITBIGSFRhhhh       29      0       0      71        0.0%
BITBIGSFRlllhhh     14      0       0      85        0.0%
BITBIGSFRhhhlhh      B      0       0      72        0.0%
BITBIGSFRhhhll       8      0       0      77        0.0%
BITBIGSFRhhlh        6      0       0      78        0.0%
BITBIGSFRhhhlhh      5      0       0      74        0.0%
BITBIGSFRhhhlhl      4      0       0      76        0.0%
BITBIGSFRlhh         4      0       0      82        0.0%
BITBIGSFRhhllhh      3      0       0      80        0.0%
BITBIGSFRhhhlhh      3      0       0      73        0.0%
BITBIGSFRhhhlhh      2      0       0      75        0.0%
BITBIGSFRllhh        1      0       0      84        0.0%
BITBIGSFRlllhhl      1      0       0      88        0.0%
BITBIGSFRlllhl       1      0       0      89        0.0%
BITBIGSFRlhl         1      0       0      83        0.0%
BIGSFR_1             0      0       0     200        0.0%
BIGSFR               0      0       0     200        0.0%
BITSFR_6             0      0       0     200        0.0%
SFR_6                0      0       0     200        0.0%
BITSFR_5             0      0       0     200        0.0%
SFR_5                0      0       0     200        0.0%
BITSFR_4             0      0       0     200        0.0%
SFR_4                0      0       0     200        0.0%
BITSFR_3             0      0       0     200        0.0%
SFR_3                0      0       0     200        0.0%
BITSFR_2             0      0       0     200        0.0%
SFR_2                0      0       0     200        0.0%
BITSFR_1             0      0       0     200        0.0%
SFR_1                0      0       0     200        0.0%
BITSFR               0      0       0     200        0.0%
SFR                  0      0       0     200        0.0%
STACK                0      0       0       2        0.0%
NULL                 0      0       0       0        0.0%
ABS                  0      0      1F      62        0.0%
DATA                 0      0      1F       3        0.0%
CODE                 0      0       0       0        0.0%


Microchip Technology PIC18 Macro Assembler V2.36 build 20220127204148 
Symbol Table                                                                                   Tue Aug 23 23:13:41 2022

                                       l7 2AE0                                         l8 2AE0  
                  ??_I2C1_DefaultCallback 051A                           ??_I2C1_IsBusCol 051A  
                         ??_I2C1_BusReset 051A                                       l127 287C  
                                     l311 28BC                                       l154 2988  
                                     l246 2A76                                       l335 2ADA  
                                     l361 2ABE                                       l506 2AB0  
                                     l348 2ACC                                       l379 29C4  
                                     l492 26CA                                       u480 297C  
                                     u481 2978                ??_INT0_SetInterruptHandler 0520  
               __end_of_I2C1_DataTransmit 2AFC                                       tosl 0004FD  
                                     wreg 0004E8                          __end_of_I2C1_ISR 2826  
                                    l1401 2670                                      l1411 267E  
                                    l1403 2672                                      l1413 2680  
                                    l1405 2674                                      l1407 267A  
                                    l1409 267C                                      l1187 2A64  
                                    l1383 29AA                                      l1631 2ACE  
                                    l1391 261C                                      l1641 2850  
                                    l1633 2AC0                                      l1393 2622  
                                    l1385 2600                                      l1627 2968  
                                    l1651 285A                                      l1643 2854  
                                    l1635 2AB2                                      l1395 2626  
                                    l1387 2614                                      l1629 297C  
                                    l1661 2864                                      l1653 285C  
                                    l1645 2856                                      l1637 2826  
                                    l1397 262C                                      l1389 2616  
                                    l1663 2868                                      l1655 285E  
                                    l1647 2858                                      l1639 284C  
                                    l1671 2884                                      l1399 266E  
                                    l1665 286A                                      l1657 2860  
                                    l1649 2858                                      l1673 2894  
                                    l1681 2AA0                                      l1667 286C  
                                    l1659 2862                                      l1675 2896  
                                    l1683 2AA8                                      l1677 28A8  
                                    l1669 287E                                      l1685 2AAC  
                                    l1679 28AA                                      l1687 2ADC  
                       _I2C1_Deinitialize 000000                                      _LATA 0004BE  
                                    _LATB 0004BF                                      _LATC 0004C0  
                                    _LATD 0004C1                                      _LATE 0004C2  
                                    _WPUA 000401                                      _WPUB 000409  
                                    _WPUC 000411                                      _WPUD 000419  
                                    _WPUE 000421                          ??_I2C1_ReadStart 051B  
                         ??_I2C1_StopSend 051B                                      _main 2ADC  
                                    fsr2h 0004DA                                      indf2 0004DF  
                                    fsr2l 0004D9                 ?_INT2_SetInterruptHandler 051D  
                                    start 001A                              ___param_bank 000000  
                              _i2c1Status 0501                         ??_I2C1_CounterGet 051A  
                       ??_I2C1_CounterSet 051A                         ?_I2C1_BufferClear 051A  
                       __end_of_I2C1_Host 251F                                     ?_main 051A  
                                   _IOCAF 000407                                     _IOCBF 00040F  
                                   _IOCCF 000417                                     _IOCEF 000427  
                                   _IOCAN 000406                                     _IOCAP 000405  
                                   _IOCBN 00040E                                     _IOCBP 00040D  
                                   _IOCCN 000416                                     _IOCCP 000415  
                                   _IOCEN 000426                                     _IOCEP 000425  
                                   i2l200 2B2C                                     i2l203 2AF0  
                                   i2l212 2B04                                     i2l206 2AFA  
                                   i2l231 2A0A                                     i2l215 2B38  
                                   i2l240 2A20                                     i2l224 2B32  
                                   i2l320 2788                                     i2l209 2B26  
                                   i2l321 2764                                     i2l218 28F2  
                                   i2l234 2A4C                                     i2l243 2A62  
                                   i2l252 2B20                                     i2l228 2966  
                                   i2l164 2824                                     i2l237 2A36  
                                   i2l173 25D0                                     i2l157 27BC  
                                   i2l325 2788                                     i2l317 271C  
                                   i2l246 2A8A                                     i2l182 29DC  
                                   i2l255 2B0E                                     i2l159 2800  
                                   i2l319 2740                                     i2l176 25FE  
                                   i2l249 2A9E                                     i2l258 2B18  
                                   i2l194 291A                                     i2l186 2940  
                                   i2l179 29F4                                     i2l197 2B3C  
                                   i2l495 2B3A                        ??_I2C1_BufferClear 051A  
                                   _OSCEN 0000B3                                     _TRISA 0004C6  
                                   _TRISB 0004C7                                     _TRISC 0004C8  
                                   _TRISD 0004C9                                     _TRISE 0004CA  
                        ??_I2C1_StartSend 051A                         ??_I2C1_Initialize 0520  
                 __end_of_PIN_MANAGER_IOC 2B3C                   ??_I2C1_CallbackRegister 0520  
                _INT1_SetInterruptHandler 2AC0                  ??_I2C1_InterruptsDisable 051A  
                                   pclath 0004FA                                     pclatu 0004FB  
                   I2C1_DataTransmit@data 051A                                     status 0004D8  
                            ??_I2C1_Close 051A                           __initialization 298A  
                            __end_of_main 2AE8                         _I2C1_IsBusTimeOut 2A22  
                      ?_I2C1_IsBusTimeOut 051A               ?_INTERRUPT_InterruptManager 051A  
                                  ??_main 0520                             __activetblptr 000003  
                     ??_I2C1_IsBusTimeOut 051A      I2C1_CallbackRegister@callbackHandler 051D  
                      __end_of_I2C1_Close 291C                     _I2C1_InterruptsEnable 2A64  
                                  _ACTCON 0000AC                                    _ANSELA 000400  
                                  _ANSELB 000408                                    _ANSELC 000410  
                                  _ANSELD 000418                                    _ANSELE 000420  
                                  _RB1I2C 000289                                    _RB2I2C 000288  
                                  _RC3I2C 000287                                    _RC4I2C 000286  
                                  _RC4PPS 000215                                    _RC5PPS 000216  
                                  _ODCONA 000402                                    _ODCONB 00040A  
                                  _ODCONC 000412                                    _ODCOND 00041A  
                                  _ODCONE 000422                                    i2l1201 2AFE  
                                  i2l1211 2B06                                    i2l1203 2AEA  
                                  i2l1213 2B10                                    i2l1301 2916  
                                  i2l1205 2B28                                    i2l1215 2B16  
                                  i2l1303 2942                                    i2l1209 2B1A  
                                  i2l1321 28CE                                    i2l1313 28BE  
                                  i2l1217 2B34                                    i2l1305 2946  
                                  i2l1227 2A78                                    i2l1331 28DE  
                                  i2l1323 28D2                                    i2l1315 28C2  
                                  i2l1307 295A                                    i2l1341 28E6  
                                  i2l1333 28DE                                    i2l1325 28D6  
                                  i2l1317 28C6                                    i2l1309 2A38  
                                  i2l1501 25C4                                    i2l1343 28E8  
                                  i2l1335 28E0                                    i2l1327 28DA  
                                  i2l1319 28CA                                    i2l1351 2A4E  
                                  i2l1503 25C8                                    i2l1511 29F0  
                                  i2l1193 2A8C                                    i2l1345 28EA  
                                  i2l1337 28E2                                    i2l1329 28DC  
                                  i2l1505 25D4                                    i2l1513 29C6  
                                  i2l1195 2A94                                    i2l1347 28EE  
                                  i2l1339 28E4                                    i2l1363 2A22  
                                  i2l1355 29F6                                    i2l1507 25E4  
                                  i2l1291 293C                                    i2l1451 27D8  
                                  i2l1443 2796                                    i2l1349 28F0  
                                  i2l1197 2B2E                                    i2l1293 28F4  
                                  i2l1285 291C                                    i2l1453 27E8  
                                  i2l1461 27F8                                    i2l1445 27A6  
                                  i2l1509 29DE                                    i2l1359 2A0C  
                                  i2l1199 2AF4                                    i2l1471 2520  
                                  i2l1295 28FE                                    i2l1287 292E  
                                  i2l1455 27EC                                    i2l1447 27B4  
                                  i2l1367 2B22                                    i2l1481 2558  
                                  i2l1473 2534                                    i2l1297 2906  
                                  i2l1289 2934                                    i2l1465 280E  
                                  i2l1457 27EE                                    i2l1449 27CA  
                                  i2l1491 2590                                    i2l1483 256C  
                                  i2l1475 2538                                    i2l1299 290E  
                                  i2l1467 281C                                    i2l1459 27F0  
                                  i2l1571 26D8                                    i2l1493 25A4  
                                  i2l1485 2570                                    i2l1477 253C  
                                  i2l1469 2820                                    i2l1581 2714  
                                  i2l1573 26E6                                    i2l1495 25A8  
                                  i2l1487 2574                                    i2l1479 2544  
                                  i2l1591 2772                                    i2l1583 272A  
                                  i2l1575 26F4                                    i2l1489 257C  
                                  i2l1593 2780                                    i2l1585 2738  
                                  i2l1577 26F8                                    i2l1499 25B0  
                                  i2l1587 274E                                    i2l1579 2706  
                                  i2l1589 275C                                    _INLVLA 000404  
                                  _INLVLB 00040C                                    _INLVLC 000414  
                                  _INLVLD 00041C                                    _INLVLE 000424  
                                  _OSCFRQ 0000B1                                    i2u6_40 292E  
                                  i2u6_41 292A                                    i2u7_40 295A  
                                  i2u7_41 2956                                    i2u8_40 2A4A  
                                  i2u8_41 2A44                                    i2u8_46 2A4C  
                                  i2u9_40 2A60                                    i2u9_41 2A5A  
               __end_of_I2C1_IsBusTimeOut 2A38                                 ?_I2C1_ISR 051A  
                                  clear_0 2990                                    isa$std 000001  
                 fp__I2C1_DefaultCallback 0000                         ?_CLOCK_Initialize 051A  
            _INT2_DefaultInterruptHandler 000000                        ??_CLOCK_Initialize 051D  
                            __mediumconst 0000  INT2_SetInterruptHandler@InterruptHandler 051D  
INT1_SetInterruptHandler@InterruptHandler 051D  INT0_SetInterruptHandler@InterruptHandler 051D  
                        ?_PIN_MANAGER_IOC 051A                         _SYSTEM_Initialize 2AA0  
                           ??_I2C1_RX_ISR 051A                                __accesstop 0560  
                 __end_of__initialization 29A4                             ??_I2C1_TX_ISR 051B  
                           ??_I2C1_IsAddr 051A                             ??_I2C1_IsData 051A  
                           ??_I2C1_IsNack 051A                        ?_SYSTEM_Initialize 051A  
                           ___rparam_used 000001                            __pcstackCOMRAM 051A  
                     ??_SYSTEM_Initialize 0520                                ??_I2C1_ISR 051B  
        __end_of_INT2_SetInterruptHandler 2AC0                    ?_I2C1_InterruptsEnable 051A  
               __end_of_SYSTEM_Initialize 2AB2                     _INT0_InterruptHandler 0514  
                         _I2C1_CounterGet 2B34                           _I2C1_CounterSet 2AFC  
                                 IVTBASEH 00045E                                   IVTBASEL 00045D  
                                 IVTBASEU 00045F                       __end_of_I2C1_RX_ISR 29F6  
                     __end_of_I2C1_TX_ISR 29DE                       __end_of_I2C1_IsAddr 2A64  
                     __end_of_I2C1_IsData 2A22                       __end_of_I2C1_IsNack 2A0C  
                                 _I2C1CLK 00029C                                   _I2C1CNT 00028D  
                                 _I2C1ERR 000297                                   _I2C1PIE 00029B  
                                 _I2C1PIR 00029A                                   _I2C1RXB 00028B  
                                 _I2C1TXB 00028C                           _I2C1_Initialize 2826  
                  _I2C1_InterruptsDisable 2A8C                     __end_of_I2C1_IsBusCol 2A4E  
                   __end_of_I2C1_BusReset 28F4                                 _I2C1STAT1 000299  
              ??_INT1_SetInterruptHandler 0520                                 _I2C1_Read 000000  
                               _I2C1_Host 2501                                   _OSCCON1 0000AD  
                                 _OSCCON3 0000AF                   i2_I2C1_InterruptsEnable 2A78  
                                 i2u10_40 2A62                                   i2u11_40 2A08  
                                 i2u11_41 2A02                                   i2u11_46 2A0A  
                                 i2u12_40 2A1E                                   i2u20_40 280E  
                                 i2u12_41 2A18                                   i2u20_41 280A  
                                 i2u12_46 2A20                                   i2u13_40 2A34  
                                 i2u21_40 281C                                   i2u13_41 2A2E  
                                 i2u21_41 2818                                   i2u13_46 2A36  
                                 i2u22_40 2534                                   i2u22_41 2530  
                                 i2u23_40 2558                                   i2u15_40 27A6  
                                 i2u23_41 2554                                   i2u15_41 27A2  
                                 i2u24_40 256C                                   i2u16_40 27B4  
                                 i2u40_40 2772                                   i2u32_40 26E6  
                                 i2u24_41 2568                                   i2u16_41 27B0  
                                 i2u40_41 276E                                   i2u32_41 26E2  
                                 i2u25_40 2590                                   i2u17_40 27CA  
                                 i2u41_40 2780                                   i2u33_40 26F4  
                                 i2u25_41 258C                                   i2u17_41 27C6  
                                 i2u41_41 277C                                   i2u33_41 26F0  
                                 i2u26_40 25A4                                   i2u18_40 27D8  
                                 i2u34_40 2706                                   i2u26_41 25A0  
                                 i2u18_41 27D4                                   i2u34_41 2702  
                                 i2u27_40 25C4                                   i2u19_40 27E8  
                                 i2u35_40 2714                                   i2u27_41 25C0  
                                 i2u19_41 27E4                                   i2u35_41 2710  
                                 i2u28_40 25E4                                   i2u36_40 272A  
                                 i2u28_41 25E0                                   i2u36_41 2726  
                                 i2u37_40 2738                                   i2u37_41 2734  
                                 i2u29_48 25EA                                   i2u38_40 274E  
                                 i2u29_49 25FE                                   i2u38_41 274A  
                                 _OSCTUNE 0000B0                                   i2u39_40 275C  
                                 i2u39_41 2758                                   _SLRCONA 000403  
                                 _SLRCONB 00040B                                   _SLRCONC 000413  
                                 _SLRCOND 00041B                                   _SLRCONE 000423  
           __end_of_I2C1_CallbackRegister 298A                 ?_INT0_SetInterruptHandler 051D  
                   __end_of_I2C1_StopSend 2968                                   __Hparam 0000  
                                 __Lparam 0000                              __psmallconst 2500  
            __end_of_I2C1_InterruptsClear 2B22                                   __pcinit 298A  
                                 __ramtop 2500                                   __ptext0 2ADC  
                                 __ptext1 2AA0                                   __ptext2 2600  
                                 __ptext3 287E                                   __ptext4 2AB2  
                                 __ptext5 2AC0                                   __ptext6 2ACE  
                                 __ptext7 2826                                   __ptext8 2A64  
                                 __ptext9 2968                       _I2C1_RestartDisable 2B2E  
                             _I2C1ERRbits 000297                  ??_PIN_MANAGER_Initialize 051D  
                             _I2C1PIEbits 00029B                               _I2C1PIRbits 00029A  
                 __end_of_I2C1_CounterGet 2B3A                   __end_of_I2C1_CounterSet 2B06  
                    end_of_initialization 29A4                  _INT2_SetInterruptHandler 2AB2  
                               _PIR10bits 0004B8                               _I2C1_RX_ISR 29DE  
                             _I2C1_TX_ISR 29C6                               _I2C1_IsAddr 2A4E  
                             _I2C1_IsData 2A0C                               _I2C1_IsNack 29F6  
                             _I2C1_IsBusy 000000                     I2C1_AddrTransmit@addr 051A  
                    ?_I2C1_RestartDisable 051A                   __end_of_I2C1_Initialize 287E  
                                 postinc0 0004EE                          _I2C1_DataReceive 2B22  
                   _INT1_InterruptHandler 0511                 ??i2_I2C1_InterruptsEnable 051A  
                   ??_I2C1_RestartDisable 051A                  fp__I2C1_CallbackRegister 0000  
            __end_of_INTERRUPT_Initialize 28BE                            _I2C1_ERROR_ISR 2520  
            _INT0_DefaultInterruptHandler 000000                   ??_I2C1_InterruptsEnable 051D  
                     start_initialization 298A                          ?_I2C1_CounterGet 051A  
                        ?_I2C1_CounterSet 051A                                ivt0x8_base 0008  
                        _I2C1_BufferClear 2B10                      _I2C1_InterruptsClear 2B1A  
                        ?_I2C1_Initialize 051A                    __end_of_I2C1_ERROR_ISR 2600  
                 ?_I2C1_InterruptsDisable 051A              __end_of_I2C1_ErrorFlagsClear 2B10  
                             __pbssCOMRAM 0501          __end_of_INT0_SetInterruptHandler 2ADC  
            __end_of_I2C1_DefaultCallback 2B3E                     ?_I2C1_InterruptsClear 051A  
                   _INT2_InterruptHandler 050E            __end_of_I2C1_InterruptsDisable 2AA0  
                  _PIN_MANAGER_Initialize 2600                           ?_I2C1_ERROR_ISR 051A  
                          _I2C1_ReadStart 291C                                  _I2C1ADB1 00028F  
                                _I2C1CON0 000294                                  _I2C1CON1 000295  
                                _I2C1CON2 000296                                  _I2C1_ISR 2796  
            ??_INTERRUPT_InterruptManager 051B                               __smallconst 2500  
              ??_INT2_SetInterruptHandler 0520                    I2C1_CounterSet@counter 051A  
                __end_of_I2C1_DataReceive 2B28                      _INTERRUPT_Initialize 287E  
                              _I2C1SDAPPS 000270                                _I2C1SCLPPS 000271  
                        _CLOCK_Initialize 29AA                            _I2C1_StartSend 2B28  
                            ?_I2C1_RX_ISR 051A                              ?_I2C1_TX_ISR 051A  
                            ?_I2C1_IsAddr 051A                              ?_I2C1_IsData 051A  
                            ?_I2C1_IsNack 051A                     _I2C1_CallbackRegister 2968  
               ?_INT1_SetInterruptHandler 051D                                  _PIE0bits 00049E  
                                _PIE7bits 0004A5                                _I2C1_Close 28F4  
                  __end_of_I2C1_ReadStart 2942                             _I2C1STAT0bits 000298  
                           _I2C1STAT1bits 000299                                  _PIR0bits 0004AE  
                                _PIR1bits 0004AF                                  _PIR6bits 0004B4  
                              _I2C1_Write 000000                                  _PIR7bits 0004B5  
                          _I2C1_WriteRead 000000                         ??_PIN_MANAGER_IOC 051A  
                             _INTCON0bits 0004D6                     ?_INTERRUPT_Initialize 051A  
                  __end_of_I2C1_StartSend 2B2E                    ??_I2C1_InterruptsClear 051A  
                _INT0_SetInterruptHandler 2ACE                      _I2C1_ErrorFlagsClear 2B06  
                                __Hrparam 0000                           ?_I2C1_ReadStart 051A  
                                __Lrparam 0000                             _I2C1_Callback 0517  
                __end_of_I2C1_BufferClear 2B1A                      _I2C1_DefaultCallback 2B3C  
                           _I2C1_IsBusCol 2A38                             _I2C1_BusReset 28BE  
           __end_of_I2C1_InterruptsEnable 2A78                              _I2C1CON0bits 000294  
                            _I2C1CON1bits 000295                                  __pivt0x8 0008  
                           _I2C1_ErrorGet 000000                                  __ptext10 29AA  
                                __ptext11 26CC                                  __ptext20 28F4  
                                __ptext12 2B3A                                  __ptext21 2520  
                                __ptext13 29C6                                  __ptext30 2A38  
                                __ptext22 2942                                  __ptext14 29DE  
                                __ptext31 2A4E                                  __ptext23 2B2E  
                                __ptext15 2B22                                  __ptext32 2B3C  
                                __ptext24 2AF2                                  __ptext16 2796  
                                __ptext33 28BE                                  __ptext25 2AFC  
                                __ptext17 291C                                  __ptext34 2A78  
                                __ptext26 2B34                                  __ptext18 2B28  
                                __ptext35 2A8C                                  __ptext27 29F6  
                                __ptext19 2AE8                                  __ptext36 2B1A  
                                __ptext28 2A0C                                  __ptext37 2B06  
                                __ptext29 2A22                                  __ptext38 2B10  
                                __ptext39 0000               __end_of_I2C1_RestartDisable 2B34  
                         ?_I2C1_StartSend 051A                    ?_I2C1_CallbackRegister 051D  
                       _I2C1_AddrTransmit 2AE8                     ?_I2C1_ErrorFlagsClear 051A  
                             ?_I2C1_Close 051A                        ?_I2C1_AddrTransmit 051A  
                           _I2C1_StopSend 2942                                  isa$xinst 000000  
                ?i2_I2C1_InterruptsEnable 051A                       ??_I2C1_AddrTransmit 051A  
      __end_of_INTERRUPT_InterruptManager 2796                _INTERRUPT_InterruptManager 26CC  
                   ?_I2C1_DefaultCallback 051A                            ?_I2C1_IsBusCol 051A  
            _INT1_DefaultInterruptHandler 000000                            ?_I2C1_BusReset 051A  
                  ??_INTERRUPT_Initialize 0520                                  intlevel2 0000  
               __end_of_I2C1_AddrTransmit 2AF2                          ??_I2C1_ERROR_ISR 051B  
                 ?_PIN_MANAGER_Initialize 051A                            ?_I2C1_StopSend 051A  
                      fp__I2C1_Initialize 0000                  __end_of_CLOCK_Initialize 29C6  
        __end_of_INT1_SetInterruptHandler 2ACE                         _I2C1_DataTransmit 2AF2  
                      ?_I2C1_DataTransmit 051A                         ?_I2C1_DataReceive 051A  
          __end_of_PIN_MANAGER_Initialize 26CC                    ??_I2C1_ErrorFlagsClear 051A  
                      ??_I2C1_DataReceive 051A                           _PIN_MANAGER_IOC 2B3A  
                     ??_I2C1_DataTransmit 051A           __end_ofi2_I2C1_InterruptsEnable 2A8C  
